Microchip MPLAB XC8 Compiler V2.40

Linker command line:

-W-3 \
  --edf=C:\Program Files\Microchip\xc8\v2.40\pic\dat\20220703182018_en.msgs \
  -cn -h+dist/default/production\Proyecto_02.X.production.sym \
  --cmf=dist/default/production\Proyecto_02.X.production.cmf -z -Q16F887 \
  -oC:\Users\Gabriel\AppData\Local\Temp\xcAssos.4 --defsym=__MPLAB_BUILD=1 \
  --fixupoverflow=error \
  -Mdist/default/production/Proyecto_02.X.production.map \
  --md=C:\Users\Gabriel\AppData\Local\Temp\xcAssos.dat -E1 \
  -ver=XC8 Compiler --acfsm=1493 -ACODE=00h-07FFhx4 -ASTRCODE=00h-01FFFh \
  -ASTRING=00h-0FFhx32 -ACONST=00h-0FFhx32 -AENTRY=00h-0FFhx32 \
  -ACOMMON=070h-07Fh -ABANK0=020h-06Fh -ABANK1=0A0h-0EFh \
  -ABANK2=0110h-016Fh -ABANK3=0190h-01EFh \
  -ARAM=020h-06Fh,0A0h-0EFh,0110h-016Fh,0190h-01EFh \
  -AABS1=020h-07Fh,0A0h-0EFh,0110h-016Fh,0190h-01EFh -ASFR0=00h-01Fh \
  -ASFR1=080h-09Fh -ASFR2=0100h-010Fh -ASFR3=0180h-018Fh \
  -ACONFIG=02007h-02008h -DCONFIG=2 -AIDLOC=02000h-02003h -DIDLOC=2 \
  -AEEDATA=00h-0FFh/02100h -peeprom_data=EEDATA -DEEDATA=2 -DCODE=2 \
  -DSTRCODE=2 -DSTRING=2 -DCONST=2 -DENTRY=2 \
  -preset_vec=00h,intentry=04h,init,end_init -ppowerup=CODE -pcinit=CODE \
  -pfunctab=ENTRY -k C:\Users\Gabriel\AppData\Local\Temp\xcAssos.o \
  dist/default/production\Proyecto_02.X.production.o 

Object code version is 3.11

Machine type is 16F887



                Name                               Link     Load   Length Selector   Space Scale
C:\Users\Gabriel\AppData\Local\Temp\xcAssos.o
                end_init                             10       10        3        8       0
                reset_vec                             0        0        3        0       0
                config                             2007     2007        2        0       4
                idloc                              2000     2000        4        0       5
dist/default/production\Proyecto_02.X.production.o
                cinit                                13       13       21        8       0
                intentry                              4        4        C        8       0
                config                             2007     2007        2        0       4
                idloc                              2000     2000        4        0       5
                text12                              7B9      7B9       11      B96       0
                text11                              5CB      5CB       69      B96       0
                text10                              720      720       25      B96       0
                text9                               677      677       35      B96       0
                text8                               33B      33B      211        8       0
                text7                               6AC      6AC       28      B96       0
                text6                               7A7      7A7       12      B96       0
                text5                               634      634       43      B96       0
                text4                               768      768       17      B96       0
                text3                               6FA      6FA       26      B96       0
                text2                               77F      77F       15      B96       0
                text1                               6D4      6D4       26      B96       0
                maintext                             34       34      307        8       0
                cstackBANK0                          43       43       11       20       1
                cstackCOMMON                         70       70        D       70       1
                cstackBANK1                          A0       A0        4       A0       1
                inittext                            794      794       13      B96       0
                dataBANK0                            20       20       23       20       1
                bssBANK0                             54       54        E       20       1
                bssCOMMON                            7D       7D        1       70       1
                strings                             54C      54C       7F      A98       0
                idataBANK0                          745      745       23      B96       0

TOTAL           Name                               Link     Load   Length     Space
        CLASS   CODE           
                end_init                             10       10        3         0
                cinit                                13       13       21         0
                intentry                              4        4        C         0
                reset_vec                             0        0        3         0
                text12                              7B9      7B9       11         0
                text11                              5CB      5CB       69         0
                text10                              720      720       25         0
                text9                               677      677       35         0
                text8                               33B      33B      211         0
                text7                               6AC      6AC       28         0
                text6                               7A7      7A7       12         0
                text5                               634      634       43         0
                text4                               768      768       17         0
                text3                               6FA      6FA       26         0
                text2                               77F      77F       15         0
                text1                               6D4      6D4       26         0
                maintext                             34       34      307         0
                inittext                            794      794       13         0
                idataBANK0                          745      745       23         0

        CLASS   STRCODE        

        CLASS   STRING         
                strings                             54C      54C       7F         0

        CLASS   CONST          

        CLASS   ENTRY          

        CLASS   COMMON         
                cstackCOMMON                         70       70        D         1
                bssCOMMON                            7D       7D        1         1

        CLASS   BANK0          
                cstackBANK0                          43       43       11         1
                dataBANK0                            20       20       23         1
                bssBANK0                             54       54        E         1

        CLASS   BANK1          
                cstackBANK1                          A0       A0        4         1

        CLASS   BANK2          

        CLASS   BANK3          

        CLASS   RAM            

        CLASS   ABS1           
                abs_s1                               7E       7E        2         1

        CLASS   SFR0           

        CLASS   SFR1           

        CLASS   SFR2           

        CLASS   SFR3           

        CLASS   CONFIG         
                config                             2007     2007        2         4

        CLASS   IDLOC          
                idloc                              2000     2000        4         5

        CLASS   EEDATA         

        CLASS   STACK          



SEGMENTS        Name                           Load    Length   Top    Selector   Space  Class     Delta

                reset_vec                      000000  000003  000003         0       0  CODE        2
                intentry                       000004  000548  00054C         8       0  CODE        2
                dataBANK0                      000020  000042  000062        20       1  BANK0       1
                cstackCOMMON                   000070  00000E  00007E        70       1  COMMON      1
                cstackBANK1                    0000A0  000004  0000A4        A0       1  BANK1       1
                strings                        00054C  00007F  0005CB       A98       0  STRING      2
                text11                         0005CB  0001FF  0007CA       B96       0  CODE        2


UNUSED ADDRESS RANGES

        Name                Unused          Largest block    Delta
        BANK0            0062-006F              E           1
        BANK1            00A4-00EF             4C           1
        BANK2            0110-016F             60           1
        BANK3            0190-01EF             60           1
        CODE             0003-0003              1           2
                         07CA-1FFF            800
        CONST            0003-0003              1           2
                         07CA-1FFF            100
        EEDATA           2100-21FF            100           2
        ENTRY            0003-0003              1           2
                         07CA-1FFF            100
        RAM              0062-006F              E           1
                         00A4-00EF             4C
                         0110-016F             60
                         0190-01EF             60
        SFR0             0000-001F             20           1
        SFR1             0080-009F             20           1
        SFR2             0100-010F             10           1
        SFR3             0180-018F             10           1
        STRCODE          0003-0003              1           2
                         07CA-1FFF           1836
        STRING           0003-0003              1           2
                         07CA-1FFF            100

                                  Symbol Table

?___awdiv                cstackCOMMON 0076
?___wmul                 cstackCOMMON 0070
?_map                    cstackBANK0  0047
_ADCON0bits              (abs)        001F
_ADCON1bits              (abs)        009F
_ADRESH                  (abs)        001E
_ANSELH                  (abs)        0189
_ANSELbits               (abs)        0188
_BAUDCTLbits             (abs)        0187
_CCP1CON                 (abs)        0017
_CCP1CONbits             (abs)        0017
_CCP2CON                 (abs)        001D
_CCP2CONbits             (abs)        001D
_CCPR1L                  (abs)        0015
_CCPR2L                  (abs)        001B
_EEADR                   (abs)        010D
_EEADRH                  (abs)        010F
_EECON1bits              (abs)        018C
_EECON2                  (abs)        018D
_EEDAT                   (abs)        010C
_EEDATA                  (abs)        010C
_INTCONbits              (abs)        000B
_IOCBbits                (abs)        0096
_OPTION_REGbits          (abs)        0081
_OSCCONbits              (abs)        008F
_PIE1bits                (abs)        008C
_PIR1bits                (abs)        000C
_PORTA                   (abs)        0005
_PORTB                   (abs)        0006
_PORTBbits               (abs)        0006
_PORTCbits               (abs)        0007
_PORTD                   (abs)        0008
_PORTDbits               (abs)        0008
_PR2                     (abs)        0092
_RCREG                   (abs)        001A
_RCSTAbits               (abs)        0018
_RD                      (abs)        0C60
_SPBRG                   (abs)        0099
_SPBRGH                  (abs)        009A
_T2CONbits               (abs)        0012
_TMR0                    (abs)        0001
_TRISBbits               (abs)        0086
_TRISCbits               (abs)        0087
_TRISD                   (abs)        0088
_TXREG                   (abs)        0019
_TXSTAbits               (abs)        0098
_WPUBbits                (abs)        0095
_WR                      (abs)        0C61
__Habs1                  abs1         0000
__Hbank0                 bank0        0000
__Hbank1                 bank1        0000
__Hbank2                 bank2        0000
__Hbank3                 bank3        0000
__HbssBANK0              bssBANK0     0000
__HbssCOMMON             bssCOMMON    0000
__Hcinit                 cinit        0034
__Hclrtext               clrtext      0000
__Hcode                  code         0000
__Hcommon                common       0000
__Hconfig                config       2009
__HcstackBANK0           cstackBANK0  0000
__HcstackBANK1           cstackBANK1  0000
__HcstackCOMMON          cstackCOMMON 0000
__HdataBANK0             dataBANK0    0000
__Heeprom_data           eeprom_data  0000
__Hend_init              end_init     0013
__Hfunctab               functab      0000
__HidataBANK0            idataBANK0   0000
__Hidloc                 idloc        2004
__Hinit                  init         0010
__Hinittext              inittext     0000
__Hintentry              intentry     0010
__Hmaintext              maintext     0000
__Hpowerup               powerup      0000
__Hram                   ram          0000
__Hreset_vec             reset_vec    0003
__Hsfr0                  sfr0         0000
__Hsfr1                  sfr1         0000
__Hsfr2                  sfr2         0000
__Hsfr3                  sfr3         0000
__Hspace_0               (abs)        07CA
__Hspace_1               (abs)        00A4
__Hspace_2               (abs)        0000
__Hspace_3               (abs)        0000
__Hspace_4               (abs)        4010
__Hstack                 stack        0000
__Hstrings               strings      0000
__Htext                  text         0000
__Labs1                  abs1         0000
__Lbank0                 bank0        0000
__Lbank1                 bank1        0000
__Lbank2                 bank2        0000
__Lbank3                 bank3        0000
__LbssBANK0              bssBANK0     0000
__LbssCOMMON             bssCOMMON    0000
__Lcinit                 cinit        0013
__Lclrtext               clrtext      0000
__Lcode                  code         0000
__Lcommon                common       0000
__Lconfig                config       0000
__LcstackBANK0           cstackBANK0  0000
__LcstackBANK1           cstackBANK1  0000
__LcstackCOMMON          cstackCOMMON 0000
__LdataBANK0             dataBANK0    0000
__Leeprom_data           eeprom_data  0000
__Lend_init              end_init     0010
__Lfunctab               functab      0000
__LidataBANK0            idataBANK0   0000
__Lidloc                 idloc        0000
__Linit                  init         0010
__Linittext              inittext     0000
__Lintentry              intentry     0004
__Lmaintext              maintext     0000
__Lpowerup               powerup      0000
__Lram                   ram          0000
__Lreset_vec             reset_vec    0000
__Lsfr0                  sfr0         0000
__Lsfr1                  sfr1         0000
__Lsfr2                  sfr2         0000
__Lsfr3                  sfr3         0000
__Lspace_0               (abs)        0000
__Lspace_1               (abs)        0000
__Lspace_2               (abs)        0000
__Lspace_3               (abs)        0000
__Lspace_4               (abs)        0000
__Lstack                 stack        0000
__Lstrings               strings      0000
__Ltext                  text         0000
__S0                     (abs)        07CA
__S1                     (abs)        00A4
__S3                     (abs)        0000
___awdiv                 text11       05CB
___awdiv@counter         cstackBANK0  0043
___awdiv@dividend        cstackCOMMON 0078
___awdiv@divisor         cstackCOMMON 0076
___awdiv@quotient        cstackBANK0  0045
___awdiv@sign            cstackBANK0  0044
___int_sp                stack        0000
___latbits               (abs)        0002
___sp                    stack        0000
___stackhi               (abs)        0000
___stacklo               (abs)        0000
___wmul                  text10       0720
___wmul@multiplicand     cstackCOMMON 0072
___wmul@multiplier       cstackCOMMON 0070
___wmul@product          cstackCOMMON 0074
__end_of___awdiv         text11       0634
__end_of___wmul          text10       0745
__end_of__initialization cinit        0030
__end_of__stringtab      strings      0552
__end_of_cadena          text7        06D4
__end_of_delay           text12       07CA
__end_of_isr             text8        054C
__end_of_main            maintext     033B
__end_of_map             text9        06AC
__end_of_readEEPROM      text6        07B9
__end_of_setup           text5        0677
__end_of_setupADC        text4        077F
__end_of_setupPWM        text3        0720
__end_of_setupUART       text2        0794
__end_of_writeEEPROM     text1        06FA
__initialization         cinit        0013
__pbssBANK0              bssBANK0     0054
__pbssCOMMON             bssCOMMON    007D
__pcstackBANK0           cstackBANK0  0043
__pcstackBANK1           cstackBANK1  00A0
__pcstackCOMMON          cstackCOMMON 0070
__pdataBANK0             dataBANK0    0020
__pidataBANK0            idataBANK0   0745
__pintentry              intentry     0004
__pmaintext              maintext     0034
__pstrings               strings      054C
__ptext1                 text1        06D4
__ptext10                text10       0720
__ptext11                text11       05CB
__ptext12                text12       07B9
__ptext2                 text2        077F
__ptext3                 text3        06FA
__ptext4                 text4        0768
__ptext5                 text5        0634
__ptext6                 text6        07A7
__ptext7                 text7        06AC
__ptext8                 text8        033B
__ptext9                 text9        0677
__stringbase             strings      0551
__stringtab              strings      054C
_bandera                 bssBANK0     005A
_cadena                  text7        06AC
_dato                    bssCOMMON    007D
_delay                   text12       07B9
_isr                     text8        033B
_loop                    bssBANK0     0058
_main                    maintext     0034
_map                     text9        0677
_pot                     bssBANK0     0056
_pot1                    bssBANK0     0054
_readEEPROM              text6        07A7
_selector                bssBANK0     005C
_servo                   dataBANK0    0020
_servo2                  dataBANK0    0032
_setup                   text5        0634
_setupADC                text4        0768
_setupPWM                text3        06FA
_setupUART               text2        077F
_writeEEPROM             text1        06D4
_x                       bssBANK0     0061
_x1                      bssBANK0     005F
_y                       bssBANK0     0060
_y1                      bssBANK0     005E
btemp                    (abs)        007E
cadena@cursor            cstackBANK1  00A1
delay@micro              cstackCOMMON 0070
end_of_initialization    cinit        0030
init_fetch0              inittext     0794
init_ram0                inittext     0798
interrupt_function       intentry     0004
intlevel0                functab      0000
intlevel1                functab      0000
intlevel2                functab      0000
intlevel3                functab      0000
intlevel4                functab      0000
intlevel5                functab      0000
map@inputmax             cstackBANK0  0049
map@inputmin             cstackBANK0  0047
map@outmax               cstackBANK0  004D
map@outmin               cstackBANK0  004B
map@value                cstackCOMMON 007C
reset_vec                reset_vec    0000
saved_w                  (abs)        007E
start                    init         0010
start_initialization     cinit        0013
writeEEPROM@data         cstackBANK1  00A0
wtemp0                   (abs)        007E


MODULE INFORMATION

Module		Function		Class		Link	Load	Size
C:\Program Files\Microchip\xc8\v2.40\pic\sources\c90\common\awdiv.c
		___awdiv       		CODE           	05CB	0000	105

C:\Program Files\Microchip\xc8\v2.40\pic\sources\c90\common\awdiv.c estimated size: 105

newmain.c
		_delay         		CODE           	07B9	0000	17
		_map           		CODE           	0677	0000	53
		_setupPWM      		CODE           	06FA	0000	38
		_main          		CODE           	0034	0000	775
		_cadena        		CODE           	06AC	0000	40
		_isr           		CODE           	033B	0000	529
		_setupUART     		CODE           	077F	0000	21
		_setup         		CODE           	0634	0000	67
		_readEEPROM    		CODE           	07A7	0000	18
		_writeEEPROM   		CODE           	06D4	0000	38
		_setupADC      		CODE           	0768	0000	23

newmain.c estimated size: 1619

C:\Program Files\Microchip\xc8\v2.40\pic\sources\c90\common\Umul16.c
		___wmul        		CODE           	0720	0000	37

C:\Program Files\Microchip\xc8\v2.40\pic\sources\c90\common\Umul16.c estimated size: 37

shared
		__stringtab    		STRING         	054C	0000	6
		__initialization		CODE           	0013	0000	29

shared estimated size: 35

