

Microchip MPLAB XC8 Assembler V2.40 build 20220703182018 
                                                                                               Wed May 31 12:18:45 2023

Microchip MPLAB XC8 C Compiler v2.40 (Free license) build 20220703182018 Og1 
     1                           	processor	16F887
     2                           	pagewidth 120
     3                           	opt	flic
     4                           	psect	idataBANK0,global,class=CODE,delta=2,noexec
     5                           	psect	strings,global,class=STRING,delta=2,noexec
     6                           	psect	cinit,global,class=CODE,merge=1,delta=2
     7                           	psect	bssCOMMON,global,class=COMMON,space=1,delta=1,noexec
     8                           	psect	bssBANK0,global,class=BANK0,space=1,delta=1,noexec
     9                           	psect	dataBANK0,global,class=BANK0,space=1,delta=1,noexec
    10                           	psect	inittext,global,class=CODE,delta=2
    11                           	psect	cstackBANK1,global,class=BANK1,space=1,delta=1,noexec
    12                           	psect	cstackCOMMON,global,class=COMMON,space=1,delta=1,noexec
    13                           	psect	cstackBANK0,global,class=BANK0,space=1,delta=1,noexec
    14                           	psect	maintext,global,class=CODE,split=1,delta=2
    15                           	psect	text1,local,class=CODE,merge=1,delta=2
    16                           	psect	text2,local,class=CODE,merge=1,delta=2
    17                           	psect	text3,local,class=CODE,merge=1,delta=2
    18                           	psect	text4,local,class=CODE,merge=1,delta=2
    19                           	psect	text5,local,class=CODE,merge=1,delta=2
    20                           	psect	text6,local,class=CODE,merge=1,delta=2
    21                           	psect	text7,local,class=CODE,merge=1,delta=2
    22                           	psect	text8,local,class=CODE,merge=1,delta=2
    23                           	psect	intentry,global,class=CODE,delta=2
    24                           	psect	text9,local,class=CODE,merge=1,delta=2
    25                           	psect	text10,local,class=CODE,merge=1,delta=2,group=1
    26                           	psect	text11,local,class=CODE,merge=1,delta=2,group=1
    27                           	psect	text12,local,class=CODE,merge=1,delta=2
    28                           	psect	idloc,global,abs,ovrld,class=IDLOC,space=5,delta=2,noexec
    29                           	psect	config,global,abs,ovrld,class=CONFIG,space=4,delta=2,noexec
    30                           	dabs	1,0x7E,2
    31     0000                     
    32                           ; Version 2.40
    33                           ; Generated 17/11/2021 GMT
    34                           ; 
    35                           ; Copyright © 2021, Microchip Technology Inc. and its subsidiaries ("Microchip")
    36                           ; All rights reserved.
    37                           ; 
    38                           ; This software is developed by Microchip Technology Inc. and its subsidiaries ("Microch
      +                          ip").
    39                           ; 
    40                           ; Redistribution and use in source and binary forms, with or without modification, are
    41                           ; permitted provided that the following conditions are met:
    42                           ; 
    43                           ;     1. Redistributions of source code must retain the above copyright notice, this lis
      +                          t of
    44                           ;        conditions and the following disclaimer.
    45                           ; 
    46                           ;     2. Redistributions in binary form must reproduce the above copyright notice, this 
      +                          list
    47                           ;        of conditions and the following disclaimer in the documentation and/or other
    48                           ;        materials provided with the distribution. Publication is not required when
    49                           ;        this file is used in an embedded application.
    50                           ; 
    51                           ;     3. Microchip's name may not be used to endorse or promote products derived from th
      +                          is
    52                           ;        software without specific prior written permission.
    53                           ; 
    54                           ; THIS SOFTWARE IS PROVIDED BY MICROCHIP "AS IS" AND ANY EXPRESS OR IMPLIED WARRANTIES,
    55                           ; INCLUDING, BUT NOT LIMITED TO, THE IMPLIED WARRANTIES OF MERCHANTABILITY AND FITNESS F
      +                          OR
    56                           ; PURPOSE ARE DISCLAIMED.  IN NO EVENT SHALL MICROCHIP BE LIABLE FOR ANY DIRECT, INDIREC
      +                          T,
    57                           ; INCIDENTAL, SPECIAL, EXEMPLARY, OR CONSEQUENTIAL DAMAGES (INCLUDING BUT NOT LIMITED TO
    58                           ; PROCUREMENT OF SUBSTITUTE GOODS OR SERVICES; LOSS OF USE, DATA OR PROFITS; OR BUSINESS
    59                           ; INTERRUPTION) HOWSOEVER CAUSED AND ON ANY THEORY OF LIABILITY, WHETHER IN CONTRACT, ST
      +                          RICT
    60                           ; LIABILITY, OR TORT (INCLUDING NEGLIGENCE OR OTHERWISE) ARISING IN ANY WAY OUT OF THE U
      +                          SE OF
    61                           ; THIS SOFTWARE, EVEN IF ADVISED OF THE POSSIBILITY OF SUCH DAMAGE.
    62                           ; 
    63                           ; 
    64                           ; Code-generator required, PIC16F887 Definitions
    65                           ; 
    66                           ; SFR Addresses
    67     0000                     	;# 
    68     0001                     	;# 
    69     0002                     	;# 
    70     0003                     	;# 
    71     0004                     	;# 
    72     0005                     	;# 
    73     0006                     	;# 
    74     0007                     	;# 
    75     0008                     	;# 
    76     0009                     	;# 
    77     000A                     	;# 
    78     000B                     	;# 
    79     000C                     	;# 
    80     000D                     	;# 
    81     000E                     	;# 
    82     000E                     	;# 
    83     000F                     	;# 
    84     0010                     	;# 
    85     0011                     	;# 
    86     0012                     	;# 
    87     0013                     	;# 
    88     0014                     	;# 
    89     0015                     	;# 
    90     0015                     	;# 
    91     0016                     	;# 
    92     0017                     	;# 
    93     0018                     	;# 
    94     0019                     	;# 
    95     001A                     	;# 
    96     001B                     	;# 
    97     001B                     	;# 
    98     001C                     	;# 
    99     001D                     	;# 
   100     001E                     	;# 
   101     001F                     	;# 
   102     0081                     	;# 
   103     0085                     	;# 
   104     0086                     	;# 
   105     0087                     	;# 
   106     0088                     	;# 
   107     0089                     	;# 
   108     008C                     	;# 
   109     008D                     	;# 
   110     008E                     	;# 
   111     008F                     	;# 
   112     0090                     	;# 
   113     0091                     	;# 
   114     0092                     	;# 
   115     0093                     	;# 
   116     0093                     	;# 
   117     0093                     	;# 
   118     0094                     	;# 
   119     0095                     	;# 
   120     0096                     	;# 
   121     0097                     	;# 
   122     0098                     	;# 
   123     0099                     	;# 
   124     009A                     	;# 
   125     009B                     	;# 
   126     009C                     	;# 
   127     009D                     	;# 
   128     009E                     	;# 
   129     009F                     	;# 
   130     0105                     	;# 
   131     0107                     	;# 
   132     0108                     	;# 
   133     0109                     	;# 
   134     010C                     	;# 
   135     010C                     	;# 
   136     010D                     	;# 
   137     010E                     	;# 
   138     010F                     	;# 
   139     0185                     	;# 
   140     0187                     	;# 
   141     0188                     	;# 
   142     0189                     	;# 
   143     018C                     	;# 
   144     018D                     	;# 
   145     0000                     	;# 
   146     0001                     	;# 
   147     0002                     	;# 
   148     0003                     	;# 
   149     0004                     	;# 
   150     0005                     	;# 
   151     0006                     	;# 
   152     0007                     	;# 
   153     0008                     	;# 
   154     0009                     	;# 
   155     000A                     	;# 
   156     000B                     	;# 
   157     000C                     	;# 
   158     000D                     	;# 
   159     000E                     	;# 
   160     000E                     	;# 
   161     000F                     	;# 
   162     0010                     	;# 
   163     0011                     	;# 
   164     0012                     	;# 
   165     0013                     	;# 
   166     0014                     	;# 
   167     0015                     	;# 
   168     0015                     	;# 
   169     0016                     	;# 
   170     0017                     	;# 
   171     0018                     	;# 
   172     0019                     	;# 
   173     001A                     	;# 
   174     001B                     	;# 
   175     001B                     	;# 
   176     001C                     	;# 
   177     001D                     	;# 
   178     001E                     	;# 
   179     001F                     	;# 
   180     0081                     	;# 
   181     0085                     	;# 
   182     0086                     	;# 
   183     0087                     	;# 
   184     0088                     	;# 
   185     0089                     	;# 
   186     008C                     	;# 
   187     008D                     	;# 
   188     008E                     	;# 
   189     008F                     	;# 
   190     0090                     	;# 
   191     0091                     	;# 
   192     0092                     	;# 
   193     0093                     	;# 
   194     0093                     	;# 
   195     0093                     	;# 
   196     0094                     	;# 
   197     0095                     	;# 
   198     0096                     	;# 
   199     0097                     	;# 
   200     0098                     	;# 
   201     0099                     	;# 
   202     009A                     	;# 
   203     009B                     	;# 
   204     009C                     	;# 
   205     009D                     	;# 
   206     009E                     	;# 
   207     009F                     	;# 
   208     0105                     	;# 
   209     0107                     	;# 
   210     0108                     	;# 
   211     0109                     	;# 
   212     010C                     	;# 
   213     010C                     	;# 
   214     010D                     	;# 
   215     010E                     	;# 
   216     010F                     	;# 
   217     0185                     	;# 
   218     0187                     	;# 
   219     0188                     	;# 
   220     0189                     	;# 
   221     018C                     	;# 
   222     018D                     	;# 
   223                           
   224                           	psect	idataBANK0
   225     0745                     __pidataBANK0:
   226                           
   227                           ;initializer for _servo
   228     0745  3403               	retlw	3
   229     0746  3404               	retlw	4
   230     0747  3405               	retlw	5
   231     0748  3406               	retlw	6
   232     0749  3407               	retlw	7
   233     074A  3408               	retlw	8
   234     074B  3409               	retlw	9
   235     074C  340A               	retlw	10
   236     074D  340B               	retlw	11
   237     074E  340C               	retlw	12
   238     074F  340D               	retlw	13
   239     0750  340E               	retlw	14
   240     0751  340F               	retlw	15
   241     0752  3410               	retlw	16
   242     0753  3411               	retlw	17
   243     0754  3412               	retlw	18
   244     0755  3413               	retlw	19
   245     0756  3414               	retlw	20
   246                           
   247                           ;initializer for _servo2
   248     0757  3401               	retlw	1
   249     0758  3402               	retlw	2
   250     0759  3403               	retlw	3
   251     075A  3404               	retlw	4
   252     075B  3405               	retlw	5
   253     075C  3406               	retlw	6
   254     075D  3407               	retlw	7
   255     075E  3408               	retlw	8
   256     075F  3409               	retlw	9
   257     0760  340A               	retlw	10
   258     0761  340B               	retlw	11
   259     0762  340C               	retlw	12
   260     0763  340D               	retlw	13
   261     0764  340E               	retlw	14
   262     0765  340F               	retlw	15
   263     0766  3410               	retlw	16
   264     0767  3411               	retlw	17
   265     0019                     _TXREG	set	25
   266     001D                     _CCP2CONbits	set	29
   267     001D                     _CCP2CON	set	29
   268     0012                     _T2CONbits	set	18
   269     0017                     _CCP1CONbits	set	23
   270     0017                     _CCP1CON	set	23
   271     0008                     _PORTD	set	8
   272     0006                     _PORTB	set	6
   273     0005                     _PORTA	set	5
   274     0008                     _PORTDbits	set	8
   275     0018                     _RCSTAbits	set	24
   276     001A                     _RCREG	set	26
   277     0007                     _PORTCbits	set	7
   278     0001                     _TMR0	set	1
   279     001B                     _CCPR2L	set	27
   280     001E                     _ADRESH	set	30
   281     0015                     _CCPR1L	set	21
   282     001F                     _ADCON0bits	set	31
   283     000C                     _PIR1bits	set	12
   284     0006                     _PORTBbits	set	6
   285     000B                     _INTCONbits	set	11
   286     0099                     _SPBRG	set	153
   287     009A                     _SPBRGH	set	154
   288     0098                     _TXSTAbits	set	152
   289     0092                     _PR2	set	146
   290     009F                     _ADCON1bits	set	159
   291     0096                     _IOCBbits	set	150
   292     0095                     _WPUBbits	set	149
   293     0081                     _OPTION_REGbits	set	129
   294     008F                     _OSCCONbits	set	143
   295     008C                     _PIE1bits	set	140
   296     0088                     _TRISD	set	136
   297     0087                     _TRISCbits	set	135
   298     0086                     _TRISBbits	set	134
   299     010C                     _EEDAT	set	268
   300     010C                     _EEDATA	set	268
   301     010F                     _EEADRH	set	271
   302     010D                     _EEADR	set	269
   303     018D                     _EECON2	set	397
   304     018C                     _EECON1bits	set	396
   305     0187                     _BAUDCTLbits	set	391
   306     0188                     _ANSELbits	set	392
   307     0189                     _ANSELH	set	393
   308     0C60                     _RD	set	3168
   309     0C61                     _WR	set	3169
   310                           
   311                           	psect	strings
   312     054C                     __pstrings:
   313     054C                     stringtab:
   314     054C                     __stringtab:
   315     054C                     stringcode:	
   316                           ;	String table - string pointers are 1 byte each
   317                           
   318     054C                     stringdir:
   319     054C  3005               	movlw	high stringdir
   320     054D  008A               	movwf	10
   321     054E  0804               	movf	4,w
   322     054F  0A84               	incf	4,f
   323     0550  0782               	addwf	2,f
   324     0551                     __stringbase:
   325     0551  3400               	retlw	0
   326     0552                     __end_of__stringtab:
   327     0552                     STR_1:
   328     0552  340A               	retlw	10
   329     0553  340D               	retlw	13
   330     0554  342D               	retlw	45	;'-'
   331     0555  342D               	retlw	45	;'-'
   332     0556  342D               	retlw	45	;'-'
   333     0557  342D               	retlw	45	;'-'
   334     0558  342D               	retlw	45	;'-'
   335     0559  342D               	retlw	45	;'-'
   336     055A  342D               	retlw	45	;'-'
   337     055B  342D               	retlw	45	;'-'
   338     055C  342D               	retlw	45	;'-'
   339     055D  342D               	retlw	45	;'-'
   340     055E  342D               	retlw	45	;'-'
   341     055F  342D               	retlw	45	;'-'
   342     0560  342D               	retlw	45	;'-'
   343     0561  342D               	retlw	45	;'-'
   344     0562  342D               	retlw	45	;'-'
   345     0563  342D               	retlw	45	;'-'
   346     0564  342D               	retlw	45	;'-'
   347     0565  342D               	retlw	45	;'-'
   348     0566  342D               	retlw	45	;'-'
   349     0567  342D               	retlw	45	;'-'
   350     0568  342D               	retlw	45	;'-'
   351     0569  342D               	retlw	45	;'-'
   352     056A  342D               	retlw	45	;'-'
   353     056B  342D               	retlw	45	;'-'
   354     056C  342D               	retlw	45	;'-'
   355     056D  342D               	retlw	45	;'-'
   356     056E  342D               	retlw	45	;'-'
   357     056F  342D               	retlw	45	;'-'
   358     0570  342D               	retlw	45	;'-'
   359     0571  342D               	retlw	45	;'-'
   360     0572  342D               	retlw	45	;'-'
   361     0573  342D               	retlw	45	;'-'
   362     0574  342D               	retlw	45	;'-'
   363     0575  3450               	retlw	80	;'P'
   364     0576  3441               	retlw	65	;'A'
   365     0577  3452               	retlw	82	;'R'
   366     0578  3441               	retlw	65	;'A'
   367     0579  3420               	retlw	32	;' '
   368     057A  3443               	retlw	67	;'C'
   369     057B  344F               	retlw	79	;'O'
   370     057C  344E               	retlw	78	;'N'
   371     057D  3454               	retlw	84	;'T'
   372     057E  3452               	retlw	82	;'R'
   373     057F  344F               	retlw	79	;'O'
   374     0580  344C               	retlw	76	;'L'
   375     0581  3441               	retlw	65	;'A'
   376     0582  3452               	retlw	82	;'R'
   377     0583  3420               	retlw	32	;' '
   378     0584  3443               	retlw	67	;'C'
   379     0585  344F               	retlw	79	;'O'
   380     0586  344E               	retlw	78	;'N'
   381     0587  3420               	retlw	32	;' '
   382     0588  344C               	retlw	76	;'L'
   383     0589  3441               	retlw	65	;'A'
   384     058A  3420               	retlw	32	;' '
   385     058B  3443               	retlw	67	;'C'
   386     058C  344F               	retlw	79	;'O'
   387     058D  344D               	retlw	77	;'M'
   388     058E  3450               	retlw	80	;'P'
   389     058F  3455               	retlw	85	;'U'
   390     0590  3454               	retlw	84	;'T'
   391     0591  3441               	retlw	65	;'A'
   392     0592  3444               	retlw	68	;'D'
   393     0593  344F               	retlw	79	;'O'
   394     0594  3452               	retlw	82	;'R'
   395     0595  3441               	retlw	65	;'A'
   396     0596  3420               	retlw	32	;' '
   397     0597  3445               	retlw	69	;'E'
   398     0598  344C               	retlw	76	;'L'
   399     0599  3445               	retlw	69	;'E'
   400     059A  3447               	retlw	71	;'G'
   401     059B  3449               	retlw	73	;'I'
   402     059C  3452               	retlw	82	;'R'
   403     059D  3420               	retlw	32	;' '
   404     059E  3445               	retlw	69	;'E'
   405     059F  344C               	retlw	76	;'L'
   406     05A0  3420               	retlw	32	;' '
   407     05A1  344D               	retlw	77	;'M'
   408     05A2  344F               	retlw	79	;'O'
   409     05A3  3444               	retlw	68	;'D'
   410     05A4  344F               	retlw	79	;'O'
   411     05A5  3420               	retlw	32	;' '
   412     05A6  3433               	retlw	51	;'3'
   413     05A7  342D               	retlw	45	;'-'
   414     05A8  342D               	retlw	45	;'-'
   415     05A9  342D               	retlw	45	;'-'
   416     05AA  342D               	retlw	45	;'-'
   417     05AB  342D               	retlw	45	;'-'
   418     05AC  342D               	retlw	45	;'-'
   419     05AD  342D               	retlw	45	;'-'
   420     05AE  342D               	retlw	45	;'-'
   421     05AF  342D               	retlw	45	;'-'
   422     05B0  342D               	retlw	45	;'-'
   423     05B1  342D               	retlw	45	;'-'
   424     05B2  342D               	retlw	45	;'-'
   425     05B3  342D               	retlw	45	;'-'
   426     05B4  342D               	retlw	45	;'-'
   427     05B5  342D               	retlw	45	;'-'
   428     05B6  342D               	retlw	45	;'-'
   429     05B7  342D               	retlw	45	;'-'
   430     05B8  342D               	retlw	45	;'-'
   431     05B9  342D               	retlw	45	;'-'
   432     05BA  342D               	retlw	45	;'-'
   433     05BB  342D               	retlw	45	;'-'
   434     05BC  342D               	retlw	45	;'-'
   435     05BD  342D               	retlw	45	;'-'
   436     05BE  342D               	retlw	45	;'-'
   437     05BF  342D               	retlw	45	;'-'
   438     05C0  342D               	retlw	45	;'-'
   439     05C1  342D               	retlw	45	;'-'
   440     05C2  342D               	retlw	45	;'-'
   441     05C3  342D               	retlw	45	;'-'
   442     05C4  342D               	retlw	45	;'-'
   443     05C5  342D               	retlw	45	;'-'
   444     05C6  342D               	retlw	45	;'-'
   445     05C7  342D               	retlw	45	;'-'
   446     05C8  340A               	retlw	10
   447     05C9  340D               	retlw	13
   448     05CA  3400               	retlw	0
   449                           
   450                           	psect	cinit
   451     0013                     start_initialization:	
   452                           ; #config settings
   453                           
   454     0013                     __initialization:
   455                           
   456                           ; Initialize objects allocated to BANK0
   457     0013  1383               	bcf	3,7	;select IRP bank0
   458     0014  3043               	movlw	low (__pdataBANK0+35)
   459     0015  00FD               	movwf	btemp+-1
   460     0016  3007               	movlw	high __pidataBANK0
   461     0017  00FE               	movwf	btemp
   462     0018  3045               	movlw	low __pidataBANK0
   463     0019  00FF               	movwf	btemp+1
   464     001A  3020               	movlw	low __pdataBANK0
   465     001B  0084               	movwf	4
   466     001C  120A  118A  2798  120A  118A  	fcall	init_ram0
   467                           
   468                           ; Clear objects allocated to BANK0
   469     0021  01D4               	clrf	__pbssBANK0& (0+127)
   470     0022  01D5               	clrf	(__pbssBANK0+1)& (0+127)
   471     0023  01D6               	clrf	(__pbssBANK0+2)& (0+127)
   472     0024  01D7               	clrf	(__pbssBANK0+3)& (0+127)
   473     0025  01D8               	clrf	(__pbssBANK0+4)& (0+127)
   474     0026  01D9               	clrf	(__pbssBANK0+5)& (0+127)
   475     0027  01DA               	clrf	(__pbssBANK0+6)& (0+127)
   476     0028  01DB               	clrf	(__pbssBANK0+7)& (0+127)
   477     0029  01DC               	clrf	(__pbssBANK0+8)& (0+127)
   478     002A  01DD               	clrf	(__pbssBANK0+9)& (0+127)
   479     002B  01DE               	clrf	(__pbssBANK0+10)& (0+127)
   480     002C  01DF               	clrf	(__pbssBANK0+11)& (0+127)
   481     002D  01E0               	clrf	(__pbssBANK0+12)& (0+127)
   482     002E  01E1               	clrf	(__pbssBANK0+13)& (0+127)
   483                           
   484                           ; Clear objects allocated to COMMON
   485     002F  01FD               	clrf	__pbssCOMMON& (0+127)
   486     0030                     end_of_initialization:	
   487                           ;End of C runtime variable initialization code
   488                           
   489     0030                     __end_of__initialization:
   490     0030  0183               	clrf	3
   491     0031  120A  118A  2834   	ljmp	_main	;jump to C main() function
   492                           
   493                           	psect	bssCOMMON
   494     007D                     __pbssCOMMON:
   495     007D                     _dato:
   496     007D                     	ds	1
   497                           
   498                           	psect	bssBANK0
   499     0054                     __pbssBANK0:
   500     0054                     _pot1:
   501     0054                     	ds	2
   502     0056                     _pot:
   503     0056                     	ds	2
   504     0058                     _loop:
   505     0058                     	ds	2
   506     005A                     _bandera:
   507     005A                     	ds	2
   508     005C                     _selector:
   509     005C                     	ds	2
   510     005E                     _y1:
   511     005E                     	ds	1
   512     005F                     _x1:
   513     005F                     	ds	1
   514     0060                     _y:
   515     0060                     	ds	1
   516     0061                     _x:
   517     0061                     	ds	1
   518                           
   519                           	psect	dataBANK0
   520     0020                     __pdataBANK0:
   521     0020                     _servo:
   522     0020                     	ds	18
   523     0032                     _servo2:
   524     0032                     	ds	17
   525                           
   526                           	psect	inittext
   527     0794                     init_fetch0:	
   528                           ;	Called with low address in FSR and high address in W
   529                           
   530     0794  087E               	movf	btemp,w
   531     0795  008A               	movwf	10
   532     0796  087F               	movf	btemp+1,w
   533     0797  0082               	movwf	2
   534     0798                     init_ram0:	
   535                           ;Called with:
   536                           ;	high address of idata address in btemp 
   537                           ;	low address of idata address in btemp+1 
   538                           ;	low address of data in FSR
   539                           ;	high address + 1 of data in btemp-1
   540                           
   541     0798  120A  118A  2794  120A  118A  	fcall	init_fetch0
   542     079D  0080               	movwf	0
   543     079E  0A84               	incf	4,f
   544     079F  0804               	movf	4,w
   545     07A0  067D               	xorwf	btemp+-1,w
   546     07A1  1903               	btfsc	3,2
   547     07A2  3400               	retlw	0
   548     07A3  0AFF               	incf	btemp+1,f
   549     07A4  1903               	btfsc	3,2
   550     07A5  0AFE               	incf	btemp,f
   551     07A6  2F98               	goto	init_ram0
   552                           
   553                           	psect	cstackBANK1
   554     00A0                     __pcstackBANK1:
   555     00A0                     ??_setup:
   556     00A0                     ??_setupADC:	
   557                           ; 1 bytes @ 0x0
   558                           
   559     00A0                     ??_setupPWM:	
   560                           ; 1 bytes @ 0x0
   561                           
   562     00A0                     ??_setupUART:	
   563                           ; 1 bytes @ 0x0
   564                           
   565     00A0                     ??_cadena:	
   566                           ; 1 bytes @ 0x0
   567                           
   568     00A0                     ??_writeEEPROM:	
   569                           ; 1 bytes @ 0x0
   570                           
   571     00A0                     ??_readEEPROM:	
   572                           ; 1 bytes @ 0x0
   573                           
   574     00A0                     writeEEPROM@data:	
   575                           ; 1 bytes @ 0x0
   576                           
   577                           
   578                           ; 1 bytes @ 0x0
   579     00A0                     	ds	1
   580     00A1                     cadena@cursor:
   581                           
   582                           ; 1 bytes @ 0x1
   583     00A1                     	ds	1
   584     00A2                     ??_main:
   585                           
   586                           ; 1 bytes @ 0x2
   587     00A2                     	ds	2
   588                           
   589                           	psect	cstackCOMMON
   590     0070                     __pcstackCOMMON:
   591     0070                     ?_delay:
   592     0070                     ?_setup:	
   593                           ; 1 bytes @ 0x0
   594                           
   595     0070                     ?_setupADC:	
   596                           ; 1 bytes @ 0x0
   597                           
   598     0070                     ?_setupPWM:	
   599                           ; 1 bytes @ 0x0
   600                           
   601     0070                     ?_setupUART:	
   602                           ; 1 bytes @ 0x0
   603                           
   604     0070                     ?_cadena:	
   605                           ; 1 bytes @ 0x0
   606                           
   607     0070                     ?_writeEEPROM:	
   608                           ; 1 bytes @ 0x0
   609                           
   610     0070                     ?_readEEPROM:	
   611                           ; 1 bytes @ 0x0
   612                           
   613     0070                     ?_isr:	
   614                           ; 1 bytes @ 0x0
   615                           
   616     0070                     ?_main:	
   617                           ; 1 bytes @ 0x0
   618                           
   619     0070                     ?___wmul:	
   620                           ; 1 bytes @ 0x0
   621                           
   622     0070                     delay@micro:	
   623                           ; 2 bytes @ 0x0
   624                           
   625     0070                     ___wmul@multiplier:	
   626                           ; 2 bytes @ 0x0
   627                           
   628                           
   629                           ; 2 bytes @ 0x0
   630     0070                     	ds	2
   631     0072                     ??_delay:
   632     0072                     ___wmul@multiplicand:	
   633                           ; 1 bytes @ 0x2
   634                           
   635                           
   636                           ; 2 bytes @ 0x2
   637     0072                     	ds	2
   638     0074                     ??___wmul:
   639     0074                     ___wmul@product:	
   640                           ; 1 bytes @ 0x4
   641                           
   642                           
   643                           ; 2 bytes @ 0x4
   644     0074                     	ds	2
   645     0076                     ?___awdiv:
   646     0076                     ___awdiv@divisor:	
   647                           ; 2 bytes @ 0x6
   648                           
   649                           
   650                           ; 2 bytes @ 0x6
   651     0076                     	ds	2
   652     0078                     ___awdiv@dividend:
   653                           
   654                           ; 2 bytes @ 0x8
   655     0078                     	ds	2
   656     007A                     ??___awdiv:
   657                           
   658                           ; 1 bytes @ 0xA
   659     007A                     	ds	1
   660     007B                     ??_map:
   661                           
   662                           ; 1 bytes @ 0xB
   663     007B                     	ds	1
   664     007C                     map@value:
   665                           
   666                           ; 1 bytes @ 0xC
   667     007C                     	ds	1
   668                           
   669                           	psect	cstackBANK0
   670     0043                     __pcstackBANK0:
   671     0043                     ___awdiv@counter:
   672                           
   673                           ; 1 bytes @ 0x0
   674     0043                     	ds	1
   675     0044                     ___awdiv@sign:
   676                           
   677                           ; 1 bytes @ 0x1
   678     0044                     	ds	1
   679     0045                     ___awdiv@quotient:
   680                           
   681                           ; 2 bytes @ 0x2
   682     0045                     	ds	2
   683     0047                     ?_map:
   684     0047                     map@inputmin:	
   685                           ; 2 bytes @ 0x4
   686                           
   687                           
   688                           ; 2 bytes @ 0x4
   689     0047                     	ds	2
   690     0049                     map@inputmax:
   691                           
   692                           ; 2 bytes @ 0x6
   693     0049                     	ds	2
   694     004B                     map@outmin:
   695                           
   696                           ; 2 bytes @ 0x8
   697     004B                     	ds	2
   698     004D                     map@outmax:
   699                           
   700                           ; 2 bytes @ 0xA
   701     004D                     	ds	2
   702     004F                     ??_isr:
   703                           
   704                           ; 1 bytes @ 0xC
   705     004F                     	ds	5
   706                           
   707                           	psect	maintext
   708     0034                     __pmaintext:	
   709 ;;
   710 ;;Main: autosize = 0, tempsize = 2, incstack = 0, save=0
   711 ;;
   712 ;; *************** function _main *****************
   713 ;; Defined at:
   714 ;;		line 195 in file "newmain.c"
   715 ;; Parameters:    Size  Location     Type
   716 ;;		None
   717 ;; Auto vars:     Size  Location     Type
   718 ;;		None
   719 ;; Return value:  Size  Location     Type
   720 ;;                  1    wreg      void 
   721 ;; Registers used:
   722 ;;		wreg, fsr0l, fsr0h, status,2, status,0, pclath, cstack
   723 ;; Tracked objects:
   724 ;;		On entry : B00/0
   725 ;;		On exit  : 0/0
   726 ;;		Unchanged: 0/0
   727 ;; Data sizes:     COMMON   BANK0   BANK1   BANK3   BANK2
   728 ;;      Params:         0       0       0       0       0
   729 ;;      Locals:         0       0       0       0       0
   730 ;;      Temps:          0       0       2       0       0
   731 ;;      Totals:         0       0       2       0       0
   732 ;;Total ram usage:        2 bytes
   733 ;; Hardware stack levels required when called: 4
   734 ;; This function calls:
   735 ;;		_cadena
   736 ;;		_readEEPROM
   737 ;;		_setup
   738 ;;		_setupADC
   739 ;;		_setupPWM
   740 ;;		_setupUART
   741 ;;		_writeEEPROM
   742 ;; This function is called by:
   743 ;;		Startup code after reset
   744 ;; This function uses a non-reentrant model
   745 ;;
   746                           
   747     0034                     _main:	
   748                           ;psect for function _main
   749                           
   750     0034                     l2399:	
   751                           ;incstack = 0
   752                           ; Regs used in _main: [wreg-fsr0h+status,2+status,0+pclath+cstack]
   753                           
   754                           
   755                           ;newmain.c: 196:     setup();
   756     0034  120A  118A  2634  120A  118A  	fcall	_setup
   757                           
   758                           ;newmain.c: 197:     setupADC();
   759     0039  120A  118A  2768  120A  118A  	fcall	_setupADC
   760                           
   761                           ;newmain.c: 198:     setupPWM();
   762     003E  120A  118A  26FA  120A  118A  	fcall	_setupPWM
   763                           
   764                           ;newmain.c: 199:     setupUART();
   765     0043  120A  118A  277F  120A  118A  	fcall	_setupUART
   766     0048                     l2401:
   767                           
   768                           ;newmain.c: 200:     TMR0 = 246;
   769     0048  30F6               	movlw	246
   770     0049  1283               	bcf	3,5	;RP0=0, select bank0
   771     004A  1303               	bcf	3,6	;RP1=0, select bank0
   772     004B  0081               	movwf	1	;volatile
   773     004C                     l2403:
   774                           
   775                           ;newmain.c: 201:     cadena("\n\r---------------------------------PARA CONTROLAR CON LA 
      +                          COMPUTADORA ELEGIR EL MODO 3---------------------------------\n\r");
   776     004C  3001               	movlw	(low ((STR_1-__stringbase)| (0+32768)))& (0+255)
   777     004D  120A  118A  26AC  120A  118A  	fcall	_cadena
   778     0052                     l2405:
   779                           
   780                           ;newmain.c: 203:         if (selector == 0){
   781     0052  1283               	bcf	3,5	;RP0=0, select bank0
   782     0053  1303               	bcf	3,6	;RP1=0, select bank0
   783     0054  085C               	movf	_selector,w
   784     0055  045D               	iorwf	_selector+1,w
   785     0056  1D03               	btfss	3,2
   786     0057  2859               	goto	u1931
   787     0058  285A               	goto	u1930
   788     0059                     u1931:
   789     0059  298A               	goto	l2513
   790     005A                     u1930:
   791     005A                     l2407:
   792                           
   793                           ;newmain.c: 204:             RCSTAbits.CREN = 0;
   794     005A  1218               	bcf	24,4	;volatile
   795     005B                     l2409:
   796                           
   797                           ;newmain.c: 205:             loop = 1;
   798     005B  3001               	movlw	1
   799     005C  00D8               	movwf	_loop
   800     005D  3000               	movlw	0
   801     005E  00D9               	movwf	_loop+1
   802     005F                     l2411:
   803                           
   804                           ;newmain.c: 206:             PORTDbits.RD4 = 0;
   805     005F  1208               	bcf	8,4	;volatile
   806     0060                     l2413:
   807                           
   808                           ;newmain.c: 207:             PORTDbits.RD5 = 1;
   809     0060  1688               	bsf	8,5	;volatile
   810     0061                     l2415:
   811                           
   812                           ;newmain.c: 208:             PORTDbits.RD6 = 0;
   813     0061  1308               	bcf	8,6	;volatile
   814     0062                     l2417:
   815                           
   816                           ;newmain.c: 209:             PORTDbits.RD7 = 0;
   817     0062  1388               	bcf	8,7	;volatile
   818                           
   819                           ;newmain.c: 210:             while (loop == 1){
   820     0063  2984               	goto	l2511
   821     0064                     l186:
   822                           
   823                           ;newmain.c: 211:                 if (ADCON0bits.GO == 0){
   824     0064  189F               	btfsc	31,1	;volatile
   825     0065  2867               	goto	u1941
   826     0066  2868               	goto	u1940
   827     0067                     u1941:
   828     0067  2869               	goto	l187
   829     0068                     u1940:
   830     0068                     l2419:
   831                           
   832                           ;newmain.c: 212:                     ADCON0bits.GO = 1;}
   833     0068  149F               	bsf	31,1	;volatile
   834     0069                     l187:
   835                           
   836                           ;newmain.c: 213:                 if (PORTBbits.RB6 == 0){
   837     0069  1B06               	btfsc	6,6	;volatile
   838     006A  286C               	goto	u1951
   839     006B  286D               	goto	u1950
   840     006C                     u1951:
   841     006C  2871               	goto	l2423
   842     006D                     u1950:
   843     006D                     l2421:
   844                           
   845                           ;newmain.c: 214:                     bandera = 2;}
   846     006D  3002               	movlw	2
   847     006E  00DA               	movwf	_bandera
   848     006F  3000               	movlw	0
   849     0070  00DB               	movwf	_bandera+1
   850     0071                     l2423:
   851                           
   852                           ;newmain.c: 215:                 if (PORTBbits.RB6 == 1 && bandera == 2){
   853     0071  1F06               	btfss	6,6	;volatile
   854     0072  2874               	goto	u1961
   855     0073  2875               	goto	u1960
   856     0074                     u1961:
   857     0074  28AF               	goto	l2445
   858     0075                     u1960:
   859     0075                     l2425:
   860     0075  3002               	movlw	2
   861     0076  065A               	xorwf	_bandera,w
   862     0077  045B               	iorwf	_bandera+1,w
   863     0078  1D03               	btfss	3,2
   864     0079  287B               	goto	u1971
   865     007A  287C               	goto	u1970
   866     007B                     u1971:
   867     007B  28AF               	goto	l2445
   868     007C                     u1970:
   869     007C                     l2427:
   870                           
   871                           ;newmain.c: 216:                     EEADR = 0b00000000;
   872     007C  1283               	bcf	3,5	;RP0=0, select bank2
   873     007D  1703               	bsf	3,6	;RP1=1, select bank2
   874     007E  018D               	clrf	13	;volatile
   875     007F                     l2429:
   876                           
   877                           ;newmain.c: 217:                     writeEEPROM(CCPR1L);
   878     007F  1283               	bcf	3,5	;RP0=0, select bank0
   879     0080  1303               	bcf	3,6	;RP1=0, select bank0
   880     0081  0815               	movf	21,w	;volatile
   881     0082  120A  118A  26D4  120A  118A  	fcall	_writeEEPROM
   882     0087                     l2431:
   883                           
   884                           ;newmain.c: 219:                     EEADR = 0b00000001;
   885     0087  3001               	movlw	1
   886     0088  1283               	bcf	3,5	;RP0=0, select bank2
   887     0089  1703               	bsf	3,6	;RP1=1, select bank2
   888     008A  008D               	movwf	13	;volatile
   889     008B                     l2433:
   890                           
   891                           ;newmain.c: 220:                     writeEEPROM(CCPR2L);
   892     008B  1283               	bcf	3,5	;RP0=0, select bank0
   893     008C  1303               	bcf	3,6	;RP1=0, select bank0
   894     008D  081B               	movf	27,w	;volatile
   895     008E  120A  118A  26D4  120A  118A  	fcall	_writeEEPROM
   896     0093                     l2435:
   897                           
   898                           ;newmain.c: 222:                     EEADR = 0b00000010;
   899     0093  3002               	movlw	2
   900     0094  1283               	bcf	3,5	;RP0=0, select bank2
   901     0095  1703               	bsf	3,6	;RP1=1, select bank2
   902     0096  008D               	movwf	13	;volatile
   903     0097                     l2437:
   904                           
   905                           ;newmain.c: 223:                     writeEEPROM(pot);
   906     0097  1283               	bcf	3,5	;RP0=0, select bank0
   907     0098  1303               	bcf	3,6	;RP1=0, select bank0
   908     0099  0856               	movf	_pot,w
   909     009A  120A  118A  26D4  120A  118A  	fcall	_writeEEPROM
   910     009F                     l2439:
   911                           
   912                           ;newmain.c: 225:                     EEADR = 0b00000011;
   913     009F  3003               	movlw	3
   914     00A0  1283               	bcf	3,5	;RP0=0, select bank2
   915     00A1  1703               	bsf	3,6	;RP1=1, select bank2
   916     00A2  008D               	movwf	13	;volatile
   917     00A3                     l2441:
   918                           
   919                           ;newmain.c: 226:                     writeEEPROM(pot1);
   920     00A3  1283               	bcf	3,5	;RP0=0, select bank0
   921     00A4  1303               	bcf	3,6	;RP1=0, select bank0
   922     00A5  0854               	movf	_pot1,w
   923     00A6  120A  118A  26D4  120A  118A  	fcall	_writeEEPROM
   924     00AB                     l2443:
   925                           
   926                           ;newmain.c: 228:                     bandera = 0;}
   927     00AB  1283               	bcf	3,5	;RP0=0, select bank0
   928     00AC  1303               	bcf	3,6	;RP1=0, select bank0
   929     00AD  01DA               	clrf	_bandera
   930     00AE  01DB               	clrf	_bandera+1
   931     00AF                     l2445:
   932                           
   933                           ;newmain.c: 230:                 if (PORTBbits.RB5 == 0){
   934     00AF  1A86               	btfsc	6,5	;volatile
   935     00B0  28B2               	goto	u1981
   936     00B1  28B3               	goto	u1980
   937     00B2                     u1981:
   938     00B2  28B7               	goto	l2449
   939     00B3                     u1980:
   940     00B3                     l2447:
   941                           
   942                           ;newmain.c: 231:                     bandera = 3;}
   943     00B3  3003               	movlw	3
   944     00B4  00DA               	movwf	_bandera
   945     00B5  3000               	movlw	0
   946     00B6  00DB               	movwf	_bandera+1
   947     00B7                     l2449:
   948                           
   949                           ;newmain.c: 232:                 if (PORTBbits.RB5 == 1 && bandera == 3){
   950     00B7  1E86               	btfss	6,5	;volatile
   951     00B8  28BA               	goto	u1991
   952     00B9  28BB               	goto	u1990
   953     00BA                     u1991:
   954     00BA  28F6               	goto	l2467
   955     00BB                     u1990:
   956     00BB                     l2451:
   957     00BB  3003               	movlw	3
   958     00BC  065A               	xorwf	_bandera,w
   959     00BD  045B               	iorwf	_bandera+1,w
   960     00BE  1D03               	btfss	3,2
   961     00BF  28C1               	goto	u2001
   962     00C0  28C2               	goto	u2000
   963     00C1                     u2001:
   964     00C1  28F6               	goto	l2467
   965     00C2                     u2000:
   966     00C2                     l2453:
   967                           
   968                           ;newmain.c: 233:                     EEADR = 0b00000100;
   969     00C2  3004               	movlw	4
   970     00C3  1283               	bcf	3,5	;RP0=0, select bank2
   971     00C4  1703               	bsf	3,6	;RP1=1, select bank2
   972     00C5  008D               	movwf	13	;volatile
   973     00C6                     l2455:
   974                           
   975                           ;newmain.c: 234:                     writeEEPROM(CCPR1L);
   976     00C6  1283               	bcf	3,5	;RP0=0, select bank0
   977     00C7  1303               	bcf	3,6	;RP1=0, select bank0
   978     00C8  0815               	movf	21,w	;volatile
   979     00C9  120A  118A  26D4  120A  118A  	fcall	_writeEEPROM
   980     00CE                     l2457:
   981                           
   982                           ;newmain.c: 236:                     EEADR = 0b00000101;
   983     00CE  3005               	movlw	5
   984     00CF  1283               	bcf	3,5	;RP0=0, select bank2
   985     00D0  1703               	bsf	3,6	;RP1=1, select bank2
   986     00D1  008D               	movwf	13	;volatile
   987                           
   988                           ;newmain.c: 237:                     writeEEPROM(CCPR2L);
   989     00D2  1283               	bcf	3,5	;RP0=0, select bank0
   990     00D3  1303               	bcf	3,6	;RP1=0, select bank0
   991     00D4  081B               	movf	27,w	;volatile
   992     00D5  120A  118A  26D4  120A  118A  	fcall	_writeEEPROM
   993     00DA                     l2459:
   994                           
   995                           ;newmain.c: 239:                     EEADR = 0b00000110;
   996     00DA  3006               	movlw	6
   997     00DB  1283               	bcf	3,5	;RP0=0, select bank2
   998     00DC  1703               	bsf	3,6	;RP1=1, select bank2
   999     00DD  008D               	movwf	13	;volatile
  1000     00DE                     l2461:
  1001                           
  1002                           ;newmain.c: 240:                     writeEEPROM(pot);
  1003     00DE  1283               	bcf	3,5	;RP0=0, select bank0
  1004     00DF  1303               	bcf	3,6	;RP1=0, select bank0
  1005     00E0  0856               	movf	_pot,w
  1006     00E1  120A  118A  26D4  120A  118A  	fcall	_writeEEPROM
  1007                           
  1008                           ;newmain.c: 242:                     EEADR = 0b00000111;
  1009     00E6  3007               	movlw	7
  1010     00E7  1283               	bcf	3,5	;RP0=0, select bank2
  1011     00E8  1703               	bsf	3,6	;RP1=1, select bank2
  1012     00E9  008D               	movwf	13	;volatile
  1013     00EA                     l2463:
  1014                           
  1015                           ;newmain.c: 243:                     writeEEPROM(pot1);
  1016     00EA  1283               	bcf	3,5	;RP0=0, select bank0
  1017     00EB  1303               	bcf	3,6	;RP1=0, select bank0
  1018     00EC  0854               	movf	_pot1,w
  1019     00ED  120A  118A  26D4  120A  118A  	fcall	_writeEEPROM
  1020     00F2                     l2465:
  1021                           
  1022                           ;newmain.c: 245:                     bandera = 0;}
  1023     00F2  1283               	bcf	3,5	;RP0=0, select bank0
  1024     00F3  1303               	bcf	3,6	;RP1=0, select bank0
  1025     00F4  01DA               	clrf	_bandera
  1026     00F5  01DB               	clrf	_bandera+1
  1027     00F6                     l2467:
  1028                           
  1029                           ;newmain.c: 247:                 if (PORTBbits.RB4 == 0){
  1030     00F6  1A06               	btfsc	6,4	;volatile
  1031     00F7  28F9               	goto	u2011
  1032     00F8  28FA               	goto	u2010
  1033     00F9                     u2011:
  1034     00F9  28FE               	goto	l2471
  1035     00FA                     u2010:
  1036     00FA                     l2469:
  1037                           
  1038                           ;newmain.c: 248:                     bandera = 4;}
  1039     00FA  3004               	movlw	4
  1040     00FB  00DA               	movwf	_bandera
  1041     00FC  3000               	movlw	0
  1042     00FD  00DB               	movwf	_bandera+1
  1043     00FE                     l2471:
  1044                           
  1045                           ;newmain.c: 249:                 if (PORTBbits.RB4 == 1 && bandera == 4){
  1046     00FE  1E06               	btfss	6,4	;volatile
  1047     00FF  2901               	goto	u2021
  1048     0100  2902               	goto	u2020
  1049     0101                     u2021:
  1050     0101  293D               	goto	l2489
  1051     0102                     u2020:
  1052     0102                     l2473:
  1053     0102  3004               	movlw	4
  1054     0103  065A               	xorwf	_bandera,w
  1055     0104  045B               	iorwf	_bandera+1,w
  1056     0105  1D03               	btfss	3,2
  1057     0106  2908               	goto	u2031
  1058     0107  2909               	goto	u2030
  1059     0108                     u2031:
  1060     0108  293D               	goto	l2489
  1061     0109                     u2030:
  1062     0109                     l2475:
  1063                           
  1064                           ;newmain.c: 250:                     EEADR = 0b00001000;
  1065     0109  3008               	movlw	8
  1066     010A  1283               	bcf	3,5	;RP0=0, select bank2
  1067     010B  1703               	bsf	3,6	;RP1=1, select bank2
  1068     010C  008D               	movwf	13	;volatile
  1069     010D                     l2477:
  1070                           
  1071                           ;newmain.c: 251:                     writeEEPROM(CCPR1L);
  1072     010D  1283               	bcf	3,5	;RP0=0, select bank0
  1073     010E  1303               	bcf	3,6	;RP1=0, select bank0
  1074     010F  0815               	movf	21,w	;volatile
  1075     0110  120A  118A  26D4  120A  118A  	fcall	_writeEEPROM
  1076     0115                     l2479:
  1077                           
  1078                           ;newmain.c: 253:                     EEADR = 0b00001001;
  1079     0115  3009               	movlw	9
  1080     0116  1283               	bcf	3,5	;RP0=0, select bank2
  1081     0117  1703               	bsf	3,6	;RP1=1, select bank2
  1082     0118  008D               	movwf	13	;volatile
  1083                           
  1084                           ;newmain.c: 254:                     writeEEPROM(CCPR2L);
  1085     0119  1283               	bcf	3,5	;RP0=0, select bank0
  1086     011A  1303               	bcf	3,6	;RP1=0, select bank0
  1087     011B  081B               	movf	27,w	;volatile
  1088     011C  120A  118A  26D4  120A  118A  	fcall	_writeEEPROM
  1089     0121                     l2481:
  1090                           
  1091                           ;newmain.c: 256:                     EEADR = 0b00001010;
  1092     0121  300A               	movlw	10
  1093     0122  1283               	bcf	3,5	;RP0=0, select bank2
  1094     0123  1703               	bsf	3,6	;RP1=1, select bank2
  1095     0124  008D               	movwf	13	;volatile
  1096     0125                     l2483:
  1097                           
  1098                           ;newmain.c: 257:                     writeEEPROM(pot);
  1099     0125  1283               	bcf	3,5	;RP0=0, select bank0
  1100     0126  1303               	bcf	3,6	;RP1=0, select bank0
  1101     0127  0856               	movf	_pot,w
  1102     0128  120A  118A  26D4  120A  118A  	fcall	_writeEEPROM
  1103                           
  1104                           ;newmain.c: 259:                     EEADR = 0b00001011;
  1105     012D  300B               	movlw	11
  1106     012E  1283               	bcf	3,5	;RP0=0, select bank2
  1107     012F  1703               	bsf	3,6	;RP1=1, select bank2
  1108     0130  008D               	movwf	13	;volatile
  1109     0131                     l2485:
  1110                           
  1111                           ;newmain.c: 260:                     writeEEPROM(pot1);
  1112     0131  1283               	bcf	3,5	;RP0=0, select bank0
  1113     0132  1303               	bcf	3,6	;RP1=0, select bank0
  1114     0133  0854               	movf	_pot1,w
  1115     0134  120A  118A  26D4  120A  118A  	fcall	_writeEEPROM
  1116     0139                     l2487:
  1117                           
  1118                           ;newmain.c: 262:                     bandera = 0;}
  1119     0139  1283               	bcf	3,5	;RP0=0, select bank0
  1120     013A  1303               	bcf	3,6	;RP1=0, select bank0
  1121     013B  01DA               	clrf	_bandera
  1122     013C  01DB               	clrf	_bandera+1
  1123     013D                     l2489:
  1124                           
  1125                           ;newmain.c: 264:                 if (PORTBbits.RB3 == 0){
  1126     013D  1986               	btfsc	6,3	;volatile
  1127     013E  2940               	goto	u2041
  1128     013F  2941               	goto	u2040
  1129     0140                     u2041:
  1130     0140  2945               	goto	l2493
  1131     0141                     u2040:
  1132     0141                     l2491:
  1133                           
  1134                           ;newmain.c: 265:                     bandera = 5;}
  1135     0141  3005               	movlw	5
  1136     0142  00DA               	movwf	_bandera
  1137     0143  3000               	movlw	0
  1138     0144  00DB               	movwf	_bandera+1
  1139     0145                     l2493:
  1140                           
  1141                           ;newmain.c: 266:                 if (PORTBbits.RB3 == 1 && bandera == 5){
  1142     0145  1D86               	btfss	6,3	;volatile
  1143     0146  2948               	goto	u2051
  1144     0147  2949               	goto	u2050
  1145     0148                     u2051:
  1146     0148  2984               	goto	l2511
  1147     0149                     u2050:
  1148     0149                     l2495:
  1149     0149  3005               	movlw	5
  1150     014A  065A               	xorwf	_bandera,w
  1151     014B  045B               	iorwf	_bandera+1,w
  1152     014C  1D03               	btfss	3,2
  1153     014D  294F               	goto	u2061
  1154     014E  2950               	goto	u2060
  1155     014F                     u2061:
  1156     014F  2984               	goto	l2511
  1157     0150                     u2060:
  1158     0150                     l2497:
  1159                           
  1160                           ;newmain.c: 267:                     EEADR = 0b00001100;
  1161     0150  300C               	movlw	12
  1162     0151  1283               	bcf	3,5	;RP0=0, select bank2
  1163     0152  1703               	bsf	3,6	;RP1=1, select bank2
  1164     0153  008D               	movwf	13	;volatile
  1165     0154                     l2499:
  1166                           
  1167                           ;newmain.c: 268:                     writeEEPROM(CCPR1L);
  1168     0154  1283               	bcf	3,5	;RP0=0, select bank0
  1169     0155  1303               	bcf	3,6	;RP1=0, select bank0
  1170     0156  0815               	movf	21,w	;volatile
  1171     0157  120A  118A  26D4  120A  118A  	fcall	_writeEEPROM
  1172     015C                     l2501:
  1173                           
  1174                           ;newmain.c: 270:                     EEADR = 0b00001101;
  1175     015C  300D               	movlw	13
  1176     015D  1283               	bcf	3,5	;RP0=0, select bank2
  1177     015E  1703               	bsf	3,6	;RP1=1, select bank2
  1178     015F  008D               	movwf	13	;volatile
  1179                           
  1180                           ;newmain.c: 271:                     writeEEPROM(CCPR2L);
  1181     0160  1283               	bcf	3,5	;RP0=0, select bank0
  1182     0161  1303               	bcf	3,6	;RP1=0, select bank0
  1183     0162  081B               	movf	27,w	;volatile
  1184     0163  120A  118A  26D4  120A  118A  	fcall	_writeEEPROM
  1185     0168                     l2503:
  1186                           
  1187                           ;newmain.c: 273:                     EEADR = 0b00001110;
  1188     0168  300E               	movlw	14
  1189     0169  1283               	bcf	3,5	;RP0=0, select bank2
  1190     016A  1703               	bsf	3,6	;RP1=1, select bank2
  1191     016B  008D               	movwf	13	;volatile
  1192     016C                     l2505:
  1193                           
  1194                           ;newmain.c: 274:                     writeEEPROM(pot);
  1195     016C  1283               	bcf	3,5	;RP0=0, select bank0
  1196     016D  1303               	bcf	3,6	;RP1=0, select bank0
  1197     016E  0856               	movf	_pot,w
  1198     016F  120A  118A  26D4  120A  118A  	fcall	_writeEEPROM
  1199                           
  1200                           ;newmain.c: 276:                     EEADR = 0b00001111;
  1201     0174  300F               	movlw	15
  1202     0175  1283               	bcf	3,5	;RP0=0, select bank2
  1203     0176  1703               	bsf	3,6	;RP1=1, select bank2
  1204     0177  008D               	movwf	13	;volatile
  1205     0178                     l2507:
  1206                           
  1207                           ;newmain.c: 277:                     writeEEPROM(pot1);
  1208     0178  1283               	bcf	3,5	;RP0=0, select bank0
  1209     0179  1303               	bcf	3,6	;RP1=0, select bank0
  1210     017A  0854               	movf	_pot1,w
  1211     017B  120A  118A  26D4  120A  118A  	fcall	_writeEEPROM
  1212     0180                     l2509:
  1213                           
  1214                           ;newmain.c: 279:                     bandera = 0;}
  1215     0180  1283               	bcf	3,5	;RP0=0, select bank0
  1216     0181  1303               	bcf	3,6	;RP1=0, select bank0
  1217     0182  01DA               	clrf	_bandera
  1218     0183  01DB               	clrf	_bandera+1
  1219     0184                     l2511:
  1220                           
  1221                           ;newmain.c: 210:             while (loop == 1){
  1222     0184  0358               	decf	_loop,w
  1223     0185  0459               	iorwf	_loop+1,w
  1224     0186  1903               	btfsc	3,2
  1225     0187  2989               	goto	u2071
  1226     0188  298A               	goto	u2070
  1227     0189                     u2071:
  1228     0189  2864               	goto	l186
  1229     018A                     u2070:
  1230     018A                     l2513:
  1231                           
  1232                           ;newmain.c: 282:         if (selector == 1){
  1233     018A  035C               	decf	_selector,w
  1234     018B  045D               	iorwf	_selector+1,w
  1235     018C  1D03               	btfss	3,2
  1236     018D  298F               	goto	u2081
  1237     018E  2990               	goto	u2080
  1238     018F                     u2081:
  1239     018F  2B0B               	goto	l2619
  1240     0190                     u2080:
  1241     0190                     l2515:
  1242                           
  1243                           ;newmain.c: 283:             loop = 1;
  1244     0190  3001               	movlw	1
  1245     0191  00D8               	movwf	_loop
  1246     0192  3000               	movlw	0
  1247     0193  00D9               	movwf	_loop+1
  1248     0194                     l2517:
  1249                           
  1250                           ;newmain.c: 284:             RCSTAbits.CREN = 0;
  1251     0194  1218               	bcf	24,4	;volatile
  1252     0195                     l2519:
  1253                           
  1254                           ;newmain.c: 285:             PORTDbits.RD4 = 0;
  1255     0195  1208               	bcf	8,4	;volatile
  1256     0196                     l2521:
  1257                           
  1258                           ;newmain.c: 286:             PORTDbits.RD5 = 0;
  1259     0196  1288               	bcf	8,5	;volatile
  1260     0197                     l2523:
  1261                           
  1262                           ;newmain.c: 287:             PORTDbits.RD6 = 1;
  1263     0197  1708               	bsf	8,6	;volatile
  1264     0198                     l2525:
  1265                           
  1266                           ;newmain.c: 288:             PORTDbits.RD7 = 0;
  1267     0198  1388               	bcf	8,7	;volatile
  1268                           
  1269                           ;newmain.c: 289:             while (loop == 1){
  1270     0199  2B05               	goto	l2617
  1271     019A                     l199:
  1272                           
  1273                           ;newmain.c: 290:             if (PORTBbits.RB6 == 0){
  1274     019A  1B06               	btfsc	6,6	;volatile
  1275     019B  299D               	goto	u2091
  1276     019C  299E               	goto	u2090
  1277     019D                     u2091:
  1278     019D  29A2               	goto	l2529
  1279     019E                     u2090:
  1280     019E                     l2527:
  1281                           
  1282                           ;newmain.c: 291:                 bandera = 2;}
  1283     019E  3002               	movlw	2
  1284     019F  00DA               	movwf	_bandera
  1285     01A0  3000               	movlw	0
  1286     01A1  00DB               	movwf	_bandera+1
  1287     01A2                     l2529:
  1288                           
  1289                           ;newmain.c: 292:             if (PORTBbits.RB6 == 1 && bandera == 2){
  1290     01A2  1F06               	btfss	6,6	;volatile
  1291     01A3  29A5               	goto	u2101
  1292     01A4  29A6               	goto	u2100
  1293     01A5                     u2101:
  1294     01A5  29F4               	goto	l2551
  1295     01A6                     u2100:
  1296     01A6                     l2531:
  1297     01A6  3002               	movlw	2
  1298     01A7  065A               	xorwf	_bandera,w
  1299     01A8  045B               	iorwf	_bandera+1,w
  1300     01A9  1D03               	btfss	3,2
  1301     01AA  29AC               	goto	u2111
  1302     01AB  29AD               	goto	u2110
  1303     01AC                     u2111:
  1304     01AC  29F4               	goto	l2551
  1305     01AD                     u2110:
  1306     01AD                     l2533:
  1307                           
  1308                           ;newmain.c: 293:                 EEADR = 0b00000000;
  1309     01AD  1283               	bcf	3,5	;RP0=0, select bank2
  1310     01AE  1703               	bsf	3,6	;RP1=1, select bank2
  1311     01AF  018D               	clrf	13	;volatile
  1312     01B0                     l2535:
  1313                           
  1314                           ;newmain.c: 294:                 CCPR1L = readEEPROM();
  1315     01B0  120A  118A  27A7  120A  118A  	fcall	_readEEPROM
  1316     01B5  1283               	bcf	3,5	;RP0=0, select bank0
  1317     01B6  1303               	bcf	3,6	;RP1=0, select bank0
  1318     01B7  0095               	movwf	21	;volatile
  1319     01B8                     l2537:
  1320                           
  1321                           ;newmain.c: 296:                 EEADR = 0b00000001;
  1322     01B8  3001               	movlw	1
  1323     01B9  1283               	bcf	3,5	;RP0=0, select bank2
  1324     01BA  1703               	bsf	3,6	;RP1=1, select bank2
  1325     01BB  008D               	movwf	13	;volatile
  1326     01BC                     l2539:
  1327                           
  1328                           ;newmain.c: 297:                 CCPR2L = readEEPROM();
  1329     01BC  120A  118A  27A7  120A  118A  	fcall	_readEEPROM
  1330     01C1  1283               	bcf	3,5	;RP0=0, select bank0
  1331     01C2  1303               	bcf	3,6	;RP1=0, select bank0
  1332     01C3  009B               	movwf	27	;volatile
  1333     01C4                     l2541:
  1334                           
  1335                           ;newmain.c: 299:                 EEADR = 0b00000010;
  1336     01C4  3002               	movlw	2
  1337     01C5  1283               	bcf	3,5	;RP0=0, select bank2
  1338     01C6  1703               	bsf	3,6	;RP1=1, select bank2
  1339     01C7  008D               	movwf	13	;volatile
  1340     01C8                     l2543:
  1341                           
  1342                           ;newmain.c: 300:                 pot = readEEPROM();
  1343     01C8  120A  118A  27A7  120A  118A  	fcall	_readEEPROM
  1344     01CD  1683               	bsf	3,5	;RP0=1, select bank1
  1345     01CE  1303               	bcf	3,6	;RP1=0, select bank1
  1346     01CF  00A2               	movwf	??_main^(0+128)
  1347     01D0  01A3               	clrf	(??_main^(0+128)+1)
  1348     01D1  0822               	movf	??_main^(0+128),w
  1349     01D2  1283               	bcf	3,5	;RP0=0, select bank0
  1350     01D3  1303               	bcf	3,6	;RP1=0, select bank0
  1351     01D4  00D6               	movwf	_pot
  1352     01D5  1683               	bsf	3,5	;RP0=1, select bank1
  1353     01D6  1303               	bcf	3,6	;RP1=0, select bank1
  1354     01D7  0823               	movf	(??_main+1)^(0+128),w
  1355     01D8  1283               	bcf	3,5	;RP0=0, select bank0
  1356     01D9  1303               	bcf	3,6	;RP1=0, select bank0
  1357     01DA  00D7               	movwf	_pot+1
  1358     01DB                     l2545:
  1359                           
  1360                           ;newmain.c: 302:                 EEADR = 0b00000011;
  1361     01DB  3003               	movlw	3
  1362     01DC  1283               	bcf	3,5	;RP0=0, select bank2
  1363     01DD  1703               	bsf	3,6	;RP1=1, select bank2
  1364     01DE  008D               	movwf	13	;volatile
  1365     01DF                     l2547:
  1366                           
  1367                           ;newmain.c: 303:                 pot1 = readEEPROM();
  1368     01DF  120A  118A  27A7  120A  118A  	fcall	_readEEPROM
  1369     01E4  1683               	bsf	3,5	;RP0=1, select bank1
  1370     01E5  1303               	bcf	3,6	;RP1=0, select bank1
  1371     01E6  00A2               	movwf	??_main^(0+128)
  1372     01E7  01A3               	clrf	(??_main^(0+128)+1)
  1373     01E8  0822               	movf	??_main^(0+128),w
  1374     01E9  1283               	bcf	3,5	;RP0=0, select bank0
  1375     01EA  1303               	bcf	3,6	;RP1=0, select bank0
  1376     01EB  00D4               	movwf	_pot1
  1377     01EC  1683               	bsf	3,5	;RP0=1, select bank1
  1378     01ED  1303               	bcf	3,6	;RP1=0, select bank1
  1379     01EE  0823               	movf	(??_main+1)^(0+128),w
  1380     01EF  1283               	bcf	3,5	;RP0=0, select bank0
  1381     01F0  1303               	bcf	3,6	;RP1=0, select bank0
  1382     01F1  00D5               	movwf	_pot1+1
  1383     01F2                     l2549:
  1384                           
  1385                           ;newmain.c: 305:                 bandera = 0;}
  1386     01F2  01DA               	clrf	_bandera
  1387     01F3  01DB               	clrf	_bandera+1
  1388     01F4                     l2551:
  1389                           
  1390                           ;newmain.c: 307:             if (PORTBbits.RB5 == 0){
  1391     01F4  1A86               	btfsc	6,5	;volatile
  1392     01F5  29F7               	goto	u2121
  1393     01F6  29F8               	goto	u2120
  1394     01F7                     u2121:
  1395     01F7  29FC               	goto	l2555
  1396     01F8                     u2120:
  1397     01F8                     l2553:
  1398                           
  1399                           ;newmain.c: 308:             bandera = 3;}
  1400     01F8  3003               	movlw	3
  1401     01F9  00DA               	movwf	_bandera
  1402     01FA  3000               	movlw	0
  1403     01FB  00DB               	movwf	_bandera+1
  1404     01FC                     l2555:
  1405                           
  1406                           ;newmain.c: 309:             if (PORTBbits.RB5 == 1 && bandera == 3){
  1407     01FC  1E86               	btfss	6,5	;volatile
  1408     01FD  29FF               	goto	u2131
  1409     01FE  2A00               	goto	u2130
  1410     01FF                     u2131:
  1411     01FF  2A4F               	goto	l2573
  1412     0200                     u2130:
  1413     0200                     l2557:
  1414     0200  3003               	movlw	3
  1415     0201  065A               	xorwf	_bandera,w
  1416     0202  045B               	iorwf	_bandera+1,w
  1417     0203  1D03               	btfss	3,2
  1418     0204  2A06               	goto	u2141
  1419     0205  2A07               	goto	u2140
  1420     0206                     u2141:
  1421     0206  2A4F               	goto	l2573
  1422     0207                     u2140:
  1423     0207                     l2559:
  1424                           
  1425                           ;newmain.c: 310:                 EEADR = 0b00000100;
  1426     0207  3004               	movlw	4
  1427     0208  1283               	bcf	3,5	;RP0=0, select bank2
  1428     0209  1703               	bsf	3,6	;RP1=1, select bank2
  1429     020A  008D               	movwf	13	;volatile
  1430     020B                     l2561:
  1431                           
  1432                           ;newmain.c: 311:                 CCPR1L = readEEPROM();
  1433     020B  120A  118A  27A7  120A  118A  	fcall	_readEEPROM
  1434     0210  1283               	bcf	3,5	;RP0=0, select bank0
  1435     0211  1303               	bcf	3,6	;RP1=0, select bank0
  1436     0212  0095               	movwf	21	;volatile
  1437     0213                     l2563:
  1438                           
  1439                           ;newmain.c: 313:                 EEADR = 0b00000101;
  1440     0213  3005               	movlw	5
  1441     0214  1283               	bcf	3,5	;RP0=0, select bank2
  1442     0215  1703               	bsf	3,6	;RP1=1, select bank2
  1443     0216  008D               	movwf	13	;volatile
  1444                           
  1445                           ;newmain.c: 314:                 CCPR2L = readEEPROM();
  1446     0217  120A  118A  27A7  120A  118A  	fcall	_readEEPROM
  1447     021C  1283               	bcf	3,5	;RP0=0, select bank0
  1448     021D  1303               	bcf	3,6	;RP1=0, select bank0
  1449     021E  009B               	movwf	27	;volatile
  1450     021F                     l2565:
  1451                           
  1452                           ;newmain.c: 316:                 EEADR = 0b00000110;
  1453     021F  3006               	movlw	6
  1454     0220  1283               	bcf	3,5	;RP0=0, select bank2
  1455     0221  1703               	bsf	3,6	;RP1=1, select bank2
  1456     0222  008D               	movwf	13	;volatile
  1457     0223                     l2567:
  1458                           
  1459                           ;newmain.c: 317:                 pot = readEEPROM();
  1460     0223  120A  118A  27A7  120A  118A  	fcall	_readEEPROM
  1461     0228  1683               	bsf	3,5	;RP0=1, select bank1
  1462     0229  1303               	bcf	3,6	;RP1=0, select bank1
  1463     022A  00A2               	movwf	??_main^(0+128)
  1464     022B  01A3               	clrf	(??_main^(0+128)+1)
  1465     022C  0822               	movf	??_main^(0+128),w
  1466     022D  1283               	bcf	3,5	;RP0=0, select bank0
  1467     022E  1303               	bcf	3,6	;RP1=0, select bank0
  1468     022F  00D6               	movwf	_pot
  1469     0230  1683               	bsf	3,5	;RP0=1, select bank1
  1470     0231  1303               	bcf	3,6	;RP1=0, select bank1
  1471     0232  0823               	movf	(??_main+1)^(0+128),w
  1472     0233  1283               	bcf	3,5	;RP0=0, select bank0
  1473     0234  1303               	bcf	3,6	;RP1=0, select bank0
  1474     0235  00D7               	movwf	_pot+1
  1475                           
  1476                           ;newmain.c: 319:                 EEADR = 0b00000111;
  1477     0236  3007               	movlw	7
  1478     0237  1283               	bcf	3,5	;RP0=0, select bank2
  1479     0238  1703               	bsf	3,6	;RP1=1, select bank2
  1480     0239  008D               	movwf	13	;volatile
  1481     023A                     l2569:
  1482                           
  1483                           ;newmain.c: 320:                 pot1 = readEEPROM();
  1484     023A  120A  118A  27A7  120A  118A  	fcall	_readEEPROM
  1485     023F  1683               	bsf	3,5	;RP0=1, select bank1
  1486     0240  1303               	bcf	3,6	;RP1=0, select bank1
  1487     0241  00A2               	movwf	??_main^(0+128)
  1488     0242  01A3               	clrf	(??_main^(0+128)+1)
  1489     0243  0822               	movf	??_main^(0+128),w
  1490     0244  1283               	bcf	3,5	;RP0=0, select bank0
  1491     0245  1303               	bcf	3,6	;RP1=0, select bank0
  1492     0246  00D4               	movwf	_pot1
  1493     0247  1683               	bsf	3,5	;RP0=1, select bank1
  1494     0248  1303               	bcf	3,6	;RP1=0, select bank1
  1495     0249  0823               	movf	(??_main+1)^(0+128),w
  1496     024A  1283               	bcf	3,5	;RP0=0, select bank0
  1497     024B  1303               	bcf	3,6	;RP1=0, select bank0
  1498     024C  00D5               	movwf	_pot1+1
  1499     024D                     l2571:
  1500                           
  1501                           ;newmain.c: 322:                 bandera = 0;}
  1502     024D  01DA               	clrf	_bandera
  1503     024E  01DB               	clrf	_bandera+1
  1504     024F                     l2573:
  1505                           
  1506                           ;newmain.c: 324:             if (PORTBbits.RB4 == 0){
  1507     024F  1A06               	btfsc	6,4	;volatile
  1508     0250  2A52               	goto	u2151
  1509     0251  2A53               	goto	u2150
  1510     0252                     u2151:
  1511     0252  2A57               	goto	l2577
  1512     0253                     u2150:
  1513     0253                     l2575:
  1514                           
  1515                           ;newmain.c: 325:             bandera = 4;}
  1516     0253  3004               	movlw	4
  1517     0254  00DA               	movwf	_bandera
  1518     0255  3000               	movlw	0
  1519     0256  00DB               	movwf	_bandera+1
  1520     0257                     l2577:
  1521                           
  1522                           ;newmain.c: 326:             if (PORTBbits.RB4 == 1 && bandera == 4){
  1523     0257  1E06               	btfss	6,4	;volatile
  1524     0258  2A5A               	goto	u2161
  1525     0259  2A5B               	goto	u2160
  1526     025A                     u2161:
  1527     025A  2AAA               	goto	l2595
  1528     025B                     u2160:
  1529     025B                     l2579:
  1530     025B  3004               	movlw	4
  1531     025C  065A               	xorwf	_bandera,w
  1532     025D  045B               	iorwf	_bandera+1,w
  1533     025E  1D03               	btfss	3,2
  1534     025F  2A61               	goto	u2171
  1535     0260  2A62               	goto	u2170
  1536     0261                     u2171:
  1537     0261  2AAA               	goto	l2595
  1538     0262                     u2170:
  1539     0262                     l2581:
  1540                           
  1541                           ;newmain.c: 327:                 EEADR = 0b00001000;
  1542     0262  3008               	movlw	8
  1543     0263  1283               	bcf	3,5	;RP0=0, select bank2
  1544     0264  1703               	bsf	3,6	;RP1=1, select bank2
  1545     0265  008D               	movwf	13	;volatile
  1546     0266                     l2583:
  1547                           
  1548                           ;newmain.c: 328:                 CCPR1L = readEEPROM();
  1549     0266  120A  118A  27A7  120A  118A  	fcall	_readEEPROM
  1550     026B  1283               	bcf	3,5	;RP0=0, select bank0
  1551     026C  1303               	bcf	3,6	;RP1=0, select bank0
  1552     026D  0095               	movwf	21	;volatile
  1553     026E                     l2585:
  1554                           
  1555                           ;newmain.c: 330:                 EEADR = 0b00001001;
  1556     026E  3009               	movlw	9
  1557     026F  1283               	bcf	3,5	;RP0=0, select bank2
  1558     0270  1703               	bsf	3,6	;RP1=1, select bank2
  1559     0271  008D               	movwf	13	;volatile
  1560                           
  1561                           ;newmain.c: 331:                 CCPR2L = readEEPROM();
  1562     0272  120A  118A  27A7  120A  118A  	fcall	_readEEPROM
  1563     0277  1283               	bcf	3,5	;RP0=0, select bank0
  1564     0278  1303               	bcf	3,6	;RP1=0, select bank0
  1565     0279  009B               	movwf	27	;volatile
  1566     027A                     l2587:
  1567                           
  1568                           ;newmain.c: 333:                 EEADR = 0b00001010;
  1569     027A  300A               	movlw	10
  1570     027B  1283               	bcf	3,5	;RP0=0, select bank2
  1571     027C  1703               	bsf	3,6	;RP1=1, select bank2
  1572     027D  008D               	movwf	13	;volatile
  1573     027E                     l2589:
  1574                           
  1575                           ;newmain.c: 334:                 pot = readEEPROM();
  1576     027E  120A  118A  27A7  120A  118A  	fcall	_readEEPROM
  1577     0283  1683               	bsf	3,5	;RP0=1, select bank1
  1578     0284  1303               	bcf	3,6	;RP1=0, select bank1
  1579     0285  00A2               	movwf	??_main^(0+128)
  1580     0286  01A3               	clrf	(??_main^(0+128)+1)
  1581     0287  0822               	movf	??_main^(0+128),w
  1582     0288  1283               	bcf	3,5	;RP0=0, select bank0
  1583     0289  1303               	bcf	3,6	;RP1=0, select bank0
  1584     028A  00D6               	movwf	_pot
  1585     028B  1683               	bsf	3,5	;RP0=1, select bank1
  1586     028C  1303               	bcf	3,6	;RP1=0, select bank1
  1587     028D  0823               	movf	(??_main+1)^(0+128),w
  1588     028E  1283               	bcf	3,5	;RP0=0, select bank0
  1589     028F  1303               	bcf	3,6	;RP1=0, select bank0
  1590     0290  00D7               	movwf	_pot+1
  1591                           
  1592                           ;newmain.c: 336:                 EEADR = 0b00001011;
  1593     0291  300B               	movlw	11
  1594     0292  1283               	bcf	3,5	;RP0=0, select bank2
  1595     0293  1703               	bsf	3,6	;RP1=1, select bank2
  1596     0294  008D               	movwf	13	;volatile
  1597     0295                     l2591:
  1598                           
  1599                           ;newmain.c: 337:                 pot1 = readEEPROM();
  1600     0295  120A  118A  27A7  120A  118A  	fcall	_readEEPROM
  1601     029A  1683               	bsf	3,5	;RP0=1, select bank1
  1602     029B  1303               	bcf	3,6	;RP1=0, select bank1
  1603     029C  00A2               	movwf	??_main^(0+128)
  1604     029D  01A3               	clrf	(??_main^(0+128)+1)
  1605     029E  0822               	movf	??_main^(0+128),w
  1606     029F  1283               	bcf	3,5	;RP0=0, select bank0
  1607     02A0  1303               	bcf	3,6	;RP1=0, select bank0
  1608     02A1  00D4               	movwf	_pot1
  1609     02A2  1683               	bsf	3,5	;RP0=1, select bank1
  1610     02A3  1303               	bcf	3,6	;RP1=0, select bank1
  1611     02A4  0823               	movf	(??_main+1)^(0+128),w
  1612     02A5  1283               	bcf	3,5	;RP0=0, select bank0
  1613     02A6  1303               	bcf	3,6	;RP1=0, select bank0
  1614     02A7  00D5               	movwf	_pot1+1
  1615     02A8                     l2593:
  1616                           
  1617                           ;newmain.c: 339:                 bandera = 0;}
  1618     02A8  01DA               	clrf	_bandera
  1619     02A9  01DB               	clrf	_bandera+1
  1620     02AA                     l2595:
  1621                           
  1622                           ;newmain.c: 341:             if (PORTBbits.RB3 == 0){
  1623     02AA  1986               	btfsc	6,3	;volatile
  1624     02AB  2AAD               	goto	u2181
  1625     02AC  2AAE               	goto	u2180
  1626     02AD                     u2181:
  1627     02AD  2AB2               	goto	l2599
  1628     02AE                     u2180:
  1629     02AE                     l2597:
  1630                           
  1631                           ;newmain.c: 342:             bandera = 5;}
  1632     02AE  3005               	movlw	5
  1633     02AF  00DA               	movwf	_bandera
  1634     02B0  3000               	movlw	0
  1635     02B1  00DB               	movwf	_bandera+1
  1636     02B2                     l2599:
  1637                           
  1638                           ;newmain.c: 343:             if (PORTBbits.RB3 == 1 && bandera == 5){
  1639     02B2  1D86               	btfss	6,3	;volatile
  1640     02B3  2AB5               	goto	u2191
  1641     02B4  2AB6               	goto	u2190
  1642     02B5                     u2191:
  1643     02B5  2B05               	goto	l2617
  1644     02B6                     u2190:
  1645     02B6                     l2601:
  1646     02B6  3005               	movlw	5
  1647     02B7  065A               	xorwf	_bandera,w
  1648     02B8  045B               	iorwf	_bandera+1,w
  1649     02B9  1D03               	btfss	3,2
  1650     02BA  2ABC               	goto	u2201
  1651     02BB  2ABD               	goto	u2200
  1652     02BC                     u2201:
  1653     02BC  2B05               	goto	l2617
  1654     02BD                     u2200:
  1655     02BD                     l2603:
  1656                           
  1657                           ;newmain.c: 344:                 EEADR = 0b00001100;
  1658     02BD  300C               	movlw	12
  1659     02BE  1283               	bcf	3,5	;RP0=0, select bank2
  1660     02BF  1703               	bsf	3,6	;RP1=1, select bank2
  1661     02C0  008D               	movwf	13	;volatile
  1662     02C1                     l2605:
  1663                           
  1664                           ;newmain.c: 345:                 CCPR1L = readEEPROM();
  1665     02C1  120A  118A  27A7  120A  118A  	fcall	_readEEPROM
  1666     02C6  1283               	bcf	3,5	;RP0=0, select bank0
  1667     02C7  1303               	bcf	3,6	;RP1=0, select bank0
  1668     02C8  0095               	movwf	21	;volatile
  1669     02C9                     l2607:
  1670                           
  1671                           ;newmain.c: 347:                 EEADR = 0b00001101;
  1672     02C9  300D               	movlw	13
  1673     02CA  1283               	bcf	3,5	;RP0=0, select bank2
  1674     02CB  1703               	bsf	3,6	;RP1=1, select bank2
  1675     02CC  008D               	movwf	13	;volatile
  1676                           
  1677                           ;newmain.c: 348:                 CCPR2L = readEEPROM();
  1678     02CD  120A  118A  27A7  120A  118A  	fcall	_readEEPROM
  1679     02D2  1283               	bcf	3,5	;RP0=0, select bank0
  1680     02D3  1303               	bcf	3,6	;RP1=0, select bank0
  1681     02D4  009B               	movwf	27	;volatile
  1682     02D5                     l2609:
  1683                           
  1684                           ;newmain.c: 350:                 EEADR = 0b00001110;
  1685     02D5  300E               	movlw	14
  1686     02D6  1283               	bcf	3,5	;RP0=0, select bank2
  1687     02D7  1703               	bsf	3,6	;RP1=1, select bank2
  1688     02D8  008D               	movwf	13	;volatile
  1689     02D9                     l2611:
  1690                           
  1691                           ;newmain.c: 351:                 pot = readEEPROM();
  1692     02D9  120A  118A  27A7  120A  118A  	fcall	_readEEPROM
  1693     02DE  1683               	bsf	3,5	;RP0=1, select bank1
  1694     02DF  1303               	bcf	3,6	;RP1=0, select bank1
  1695     02E0  00A2               	movwf	??_main^(0+128)
  1696     02E1  01A3               	clrf	(??_main^(0+128)+1)
  1697     02E2  0822               	movf	??_main^(0+128),w
  1698     02E3  1283               	bcf	3,5	;RP0=0, select bank0
  1699     02E4  1303               	bcf	3,6	;RP1=0, select bank0
  1700     02E5  00D6               	movwf	_pot
  1701     02E6  1683               	bsf	3,5	;RP0=1, select bank1
  1702     02E7  1303               	bcf	3,6	;RP1=0, select bank1
  1703     02E8  0823               	movf	(??_main+1)^(0+128),w
  1704     02E9  1283               	bcf	3,5	;RP0=0, select bank0
  1705     02EA  1303               	bcf	3,6	;RP1=0, select bank0
  1706     02EB  00D7               	movwf	_pot+1
  1707                           
  1708                           ;newmain.c: 353:                 EEADR = 0b00001111;
  1709     02EC  300F               	movlw	15
  1710     02ED  1283               	bcf	3,5	;RP0=0, select bank2
  1711     02EE  1703               	bsf	3,6	;RP1=1, select bank2
  1712     02EF  008D               	movwf	13	;volatile
  1713     02F0                     l2613:
  1714                           
  1715                           ;newmain.c: 354:                 pot1 = readEEPROM();
  1716     02F0  120A  118A  27A7  120A  118A  	fcall	_readEEPROM
  1717     02F5  1683               	bsf	3,5	;RP0=1, select bank1
  1718     02F6  1303               	bcf	3,6	;RP1=0, select bank1
  1719     02F7  00A2               	movwf	??_main^(0+128)
  1720     02F8  01A3               	clrf	(??_main^(0+128)+1)
  1721     02F9  0822               	movf	??_main^(0+128),w
  1722     02FA  1283               	bcf	3,5	;RP0=0, select bank0
  1723     02FB  1303               	bcf	3,6	;RP1=0, select bank0
  1724     02FC  00D4               	movwf	_pot1
  1725     02FD  1683               	bsf	3,5	;RP0=1, select bank1
  1726     02FE  1303               	bcf	3,6	;RP1=0, select bank1
  1727     02FF  0823               	movf	(??_main+1)^(0+128),w
  1728     0300  1283               	bcf	3,5	;RP0=0, select bank0
  1729     0301  1303               	bcf	3,6	;RP1=0, select bank0
  1730     0302  00D5               	movwf	_pot1+1
  1731     0303                     l2615:
  1732                           
  1733                           ;newmain.c: 356:                 bandera = 0;}
  1734     0303  01DA               	clrf	_bandera
  1735     0304  01DB               	clrf	_bandera+1
  1736     0305                     l2617:
  1737                           
  1738                           ;newmain.c: 289:             while (loop == 1){
  1739     0305  0358               	decf	_loop,w
  1740     0306  0459               	iorwf	_loop+1,w
  1741     0307  1903               	btfsc	3,2
  1742     0308  2B0A               	goto	u2211
  1743     0309  2B0B               	goto	u2210
  1744     030A                     u2211:
  1745     030A  299A               	goto	l199
  1746     030B                     u2210:
  1747     030B                     l2619:
  1748                           
  1749                           ;newmain.c: 360:         if (selector == 2){
  1750     030B  3002               	movlw	2
  1751     030C  065C               	xorwf	_selector,w
  1752     030D  045D               	iorwf	_selector+1,w
  1753     030E  1D03               	btfss	3,2
  1754     030F  2B11               	goto	u2221
  1755     0310  2B12               	goto	u2220
  1756     0311                     u2221:
  1757     0311  2B21               	goto	l2635
  1758     0312                     u2220:
  1759     0312                     l2621:
  1760                           
  1761                           ;newmain.c: 361:             loop = 1;
  1762     0312  3001               	movlw	1
  1763     0313  00D8               	movwf	_loop
  1764     0314  3000               	movlw	0
  1765     0315  00D9               	movwf	_loop+1
  1766     0316                     l2623:
  1767                           
  1768                           ;newmain.c: 362:             RCSTAbits.CREN = 1;
  1769     0316  1618               	bsf	24,4	;volatile
  1770     0317                     l2625:
  1771                           
  1772                           ;newmain.c: 363:             PORTDbits.RD4 = 0;
  1773     0317  1208               	bcf	8,4	;volatile
  1774     0318                     l2627:
  1775                           
  1776                           ;newmain.c: 364:             PORTDbits.RD5 = 0;
  1777     0318  1288               	bcf	8,5	;volatile
  1778     0319                     l2629:
  1779                           
  1780                           ;newmain.c: 365:             PORTDbits.RD6 = 0;
  1781     0319  1308               	bcf	8,6	;volatile
  1782     031A                     l2631:
  1783                           
  1784                           ;newmain.c: 366:             PORTDbits.RD7 = 1;
  1785     031A  1788               	bsf	8,7	;volatile
  1786     031B                     l2633:	
  1787                           ;newmain.c: 367:             while (loop == 1){
  1788                           
  1789                           
  1790                           ;newmain.c: 367:             while (loop == 1){
  1791     031B  0358               	decf	_loop,w
  1792     031C  0459               	iorwf	_loop+1,w
  1793     031D  1903               	btfsc	3,2
  1794     031E  2B20               	goto	u2231
  1795     031F  2B21               	goto	u2230
  1796     0320                     u2231:
  1797     0320  2B1B               	goto	l2633
  1798     0321                     u2230:
  1799     0321                     l2635:
  1800                           
  1801                           ;newmain.c: 370:         if (selector == 3){
  1802     0321  3003               	movlw	3
  1803     0322  065C               	xorwf	_selector,w
  1804     0323  045D               	iorwf	_selector+1,w
  1805     0324  1D03               	btfss	3,2
  1806     0325  2B27               	goto	u2241
  1807     0326  2B28               	goto	u2240
  1808     0327                     u2241:
  1809     0327  2852               	goto	l2405
  1810     0328                     u2240:
  1811     0328                     l2637:
  1812                           
  1813                           ;newmain.c: 371:             loop = 1;
  1814     0328  3001               	movlw	1
  1815     0329  00D8               	movwf	_loop
  1816     032A  3000               	movlw	0
  1817     032B  00D9               	movwf	_loop+1
  1818     032C                     l2639:
  1819                           
  1820                           ;newmain.c: 372:             RCSTAbits.CREN = 1;
  1821     032C  1618               	bsf	24,4	;volatile
  1822     032D                     l2641:
  1823                           
  1824                           ;newmain.c: 373:             PORTDbits.RD4 = 1;
  1825     032D  1608               	bsf	8,4	;volatile
  1826     032E                     l2643:
  1827                           
  1828                           ;newmain.c: 374:             PORTDbits.RD5 = 0;
  1829     032E  1288               	bcf	8,5	;volatile
  1830     032F                     l2645:
  1831                           
  1832                           ;newmain.c: 375:             PORTDbits.RD6 = 0;
  1833     032F  1308               	bcf	8,6	;volatile
  1834     0330                     l2647:
  1835                           
  1836                           ;newmain.c: 376:             PORTDbits.RD7 = 0;
  1837     0330  1388               	bcf	8,7	;volatile
  1838     0331                     l2649:	
  1839                           ;newmain.c: 377:             while (loop == 1){
  1840                           
  1841                           
  1842                           ;newmain.c: 377:             while (loop == 1){
  1843     0331  0358               	decf	_loop,w
  1844     0332  0459               	iorwf	_loop+1,w
  1845     0333  1903               	btfsc	3,2
  1846     0334  2B36               	goto	u2251
  1847     0335  2B37               	goto	u2250
  1848     0336                     u2251:
  1849     0336  2B31               	goto	l2649
  1850     0337                     u2250:
  1851     0337  2852               	goto	l2405
  1852     0338  120A  118A  2810   	ljmp	start
  1853     033B                     __end_of_main:
  1854                           
  1855                           	psect	text1
  1856     06D4                     __ptext1:	
  1857 ;; *************** function _writeEEPROM *****************
  1858 ;; Defined at:
  1859 ;;		line 524 in file "newmain.c"
  1860 ;; Parameters:    Size  Location     Type
  1861 ;;  data            1    wreg     unsigned char 
  1862 ;; Auto vars:     Size  Location     Type
  1863 ;;  data            1    0[BANK1 ] unsigned char 
  1864 ;; Return value:  Size  Location     Type
  1865 ;;                  1    wreg      void 
  1866 ;; Registers used:
  1867 ;;		wreg
  1868 ;; Tracked objects:
  1869 ;;		On entry : 0/0
  1870 ;;		On exit  : 0/0
  1871 ;;		Unchanged: 0/0
  1872 ;; Data sizes:     COMMON   BANK0   BANK1   BANK3   BANK2
  1873 ;;      Params:         0       0       0       0       0
  1874 ;;      Locals:         0       0       1       0       0
  1875 ;;      Temps:          0       0       0       0       0
  1876 ;;      Totals:         0       0       1       0       0
  1877 ;;Total ram usage:        1 bytes
  1878 ;; Hardware stack levels used: 1
  1879 ;; Hardware stack levels required when called: 3
  1880 ;; This function calls:
  1881 ;;		Nothing
  1882 ;; This function is called by:
  1883 ;;		_main
  1884 ;; This function uses a non-reentrant model
  1885 ;;
  1886                           
  1887     06D4                     _writeEEPROM:	
  1888                           ;psect for function _writeEEPROM
  1889                           
  1890                           
  1891                           ;incstack = 0
  1892                           ; Regs used in _writeEEPROM: [wreg]
  1893                           ;writeEEPROM@data stored from wreg
  1894     06D4  1683               	bsf	3,5	;RP0=1, select bank1
  1895     06D5  1303               	bcf	3,6	;RP1=0, select bank1
  1896     06D6  00A0               	movwf	writeEEPROM@data^(0+128)
  1897     06D7                     l2375:
  1898     06D7                     l243:	
  1899                           ;newmain.c: 526:     while (WR);
  1900                           
  1901     06D7  1683               	bsf	3,5	;RP0=1, select bank3
  1902     06D8  1703               	bsf	3,6	;RP1=1, select bank3
  1903     06D9  188C               	btfsc	12,1	;volsfr
  1904     06DA  2EDC               	goto	u1881
  1905     06DB  2EDD               	goto	u1880
  1906     06DC                     u1881:
  1907     06DC  2ED7               	goto	l243
  1908     06DD                     u1880:
  1909     06DD                     l2377:
  1910                           
  1911                           ;newmain.c: 527:     EEDAT = data;
  1912     06DD  1683               	bsf	3,5	;RP0=1, select bank1
  1913     06DE  1303               	bcf	3,6	;RP1=0, select bank1
  1914     06DF  0820               	movf	writeEEPROM@data^(0+128),w
  1915     06E0  1283               	bcf	3,5	;RP0=0, select bank2
  1916     06E1  1703               	bsf	3,6	;RP1=1, select bank2
  1917     06E2  008C               	movwf	12	;volatile
  1918     06E3                     l2379:
  1919                           
  1920                           ;newmain.c: 528:     EECON1bits.EEPGD = 0;
  1921     06E3  1683               	bsf	3,5	;RP0=1, select bank3
  1922     06E4  1703               	bsf	3,6	;RP1=1, select bank3
  1923     06E5  138C               	bcf	12,7	;volsfr
  1924     06E6                     l2381:
  1925                           
  1926                           ;newmain.c: 529:     EECON1bits.WREN = 1;
  1927     06E6  150C               	bsf	12,2	;volsfr
  1928     06E7                     l2383:
  1929                           
  1930                           ;newmain.c: 531:     INTCONbits.GIE = 0;
  1931     06E7  138B               	bcf	11,7	;volatile
  1932     06E8                     l246:	
  1933                           ;newmain.c: 532:     while (INTCONbits.GIE == 1);
  1934                           
  1935     06E8  1B8B               	btfsc	11,7	;volatile
  1936     06E9  2EEB               	goto	u1891
  1937     06EA  2EEC               	goto	u1890
  1938     06EB                     u1891:
  1939     06EB  2EE8               	goto	l246
  1940     06EC                     u1890:
  1941     06EC                     l2385:
  1942                           
  1943                           ;newmain.c: 533:     EECON2 = 0x55;
  1944     06EC  3055               	movlw	85
  1945     06ED  1683               	bsf	3,5	;RP0=1, select bank3
  1946     06EE  1703               	bsf	3,6	;RP1=1, select bank3
  1947     06EF  008D               	movwf	13	;volsfr
  1948                           
  1949                           ;newmain.c: 534:     EECON2 = 0xAA;
  1950     06F0  30AA               	movlw	170
  1951     06F1  008D               	movwf	13	;volsfr
  1952     06F2                     l2387:
  1953                           
  1954                           ;newmain.c: 535:     EECON1bits.WR = 1;
  1955     06F2  148C               	bsf	12,1	;volsfr
  1956     06F3                     l2389:
  1957                           
  1958                           ;newmain.c: 536:     INTCONbits.GIE = 1;
  1959     06F3  178B               	bsf	11,7	;volatile
  1960     06F4                     l249:	
  1961                           ;newmain.c: 538:     while (EECON1bits.WR == 1);
  1962                           
  1963     06F4  188C               	btfsc	12,1	;volsfr
  1964     06F5  2EF7               	goto	u1901
  1965     06F6  2EF8               	goto	u1900
  1966     06F7                     u1901:
  1967     06F7  2EF4               	goto	l249
  1968     06F8                     u1900:
  1969     06F8                     l251:
  1970                           
  1971                           ;newmain.c: 539:     EECON1bits.WREN = 0;
  1972     06F8  110C               	bcf	12,2	;volsfr
  1973     06F9                     l252:
  1974     06F9  0008               	return
  1975     06FA                     __end_of_writeEEPROM:
  1976                           
  1977                           	psect	text2
  1978     077F                     __ptext2:	
  1979 ;; *************** function _setupUART *****************
  1980 ;; Defined at:
  1981 ;;		line 493 in file "newmain.c"
  1982 ;; Parameters:    Size  Location     Type
  1983 ;;		None
  1984 ;; Auto vars:     Size  Location     Type
  1985 ;;		None
  1986 ;; Return value:  Size  Location     Type
  1987 ;;                  1    wreg      void 
  1988 ;; Registers used:
  1989 ;;		wreg, status,2
  1990 ;; Tracked objects:
  1991 ;;		On entry : 0/0
  1992 ;;		On exit  : 0/0
  1993 ;;		Unchanged: 0/0
  1994 ;; Data sizes:     COMMON   BANK0   BANK1   BANK3   BANK2
  1995 ;;      Params:         0       0       0       0       0
  1996 ;;      Locals:         0       0       0       0       0
  1997 ;;      Temps:          0       0       0       0       0
  1998 ;;      Totals:         0       0       0       0       0
  1999 ;;Total ram usage:        0 bytes
  2000 ;; Hardware stack levels used: 1
  2001 ;; Hardware stack levels required when called: 3
  2002 ;; This function calls:
  2003 ;;		Nothing
  2004 ;; This function is called by:
  2005 ;;		_main
  2006 ;; This function uses a non-reentrant model
  2007 ;;
  2008                           
  2009     077F                     _setupUART:	
  2010                           ;psect for function _setupUART
  2011                           
  2012     077F                     l2351:	
  2013                           ;incstack = 0
  2014                           ; Regs used in _setupUART: [wreg+status,2]
  2015                           
  2016                           
  2017                           ;newmain.c: 496:     BAUDCTLbits.BRG16 = 1;
  2018     077F  1683               	bsf	3,5	;RP0=1, select bank3
  2019     0780  1703               	bsf	3,6	;RP1=1, select bank3
  2020     0781  1587               	bsf	7,3	;volatile
  2021                           
  2022                           ;newmain.c: 497:     TXSTAbits.BRGH = 1;
  2023     0782  1683               	bsf	3,5	;RP0=1, select bank1
  2024     0783  1303               	bcf	3,6	;RP1=0, select bank1
  2025     0784  1518               	bsf	24,2	;volatile
  2026     0785                     l2353:
  2027                           
  2028                           ;newmain.c: 498:     SPBRGH = 0;
  2029     0785  019A               	clrf	26	;volatile
  2030     0786                     l2355:
  2031                           
  2032                           ;newmain.c: 499:     SPBRG = 12;
  2033     0786  300C               	movlw	12
  2034     0787  0099               	movwf	25	;volatile
  2035     0788                     l2357:
  2036                           
  2037                           ;newmain.c: 503:     TXSTAbits.SYNC = 0;
  2038     0788  1218               	bcf	24,4	;volatile
  2039     0789                     l2359:
  2040                           
  2041                           ;newmain.c: 504:     RCSTAbits.SPEN = 1;
  2042     0789  1283               	bcf	3,5	;RP0=0, select bank0
  2043     078A  1303               	bcf	3,6	;RP1=0, select bank0
  2044     078B  1798               	bsf	24,7	;volatile
  2045     078C                     l2361:
  2046                           
  2047                           ;newmain.c: 510:     TXSTAbits.TXEN = 1;
  2048     078C  1683               	bsf	3,5	;RP0=1, select bank1
  2049     078D  1303               	bcf	3,6	;RP1=0, select bank1
  2050     078E  1698               	bsf	24,5	;volatile
  2051     078F                     l2363:
  2052                           
  2053                           ;newmain.c: 511:     PIR1bits.TXIF = 0;
  2054     078F  1283               	bcf	3,5	;RP0=0, select bank0
  2055     0790  1303               	bcf	3,6	;RP1=0, select bank0
  2056     0791  120C               	bcf	12,4	;volatile
  2057     0792                     l2365:
  2058                           
  2059                           ;newmain.c: 512:     RCSTAbits.CREN = 1;
  2060     0792  1618               	bsf	24,4	;volatile
  2061     0793                     l234:
  2062     0793  0008               	return
  2063     0794                     __end_of_setupUART:
  2064                           
  2065                           	psect	text3
  2066     06FA                     __ptext3:	
  2067 ;; *************** function _setupPWM *****************
  2068 ;; Defined at:
  2069 ;;		line 467 in file "newmain.c"
  2070 ;; Parameters:    Size  Location     Type
  2071 ;;		None
  2072 ;; Auto vars:     Size  Location     Type
  2073 ;;		None
  2074 ;; Return value:  Size  Location     Type
  2075 ;;                  1    wreg      void 
  2076 ;; Registers used:
  2077 ;;		wreg, status,2, status,0
  2078 ;; Tracked objects:
  2079 ;;		On entry : 0/0
  2080 ;;		On exit  : 0/0
  2081 ;;		Unchanged: 0/0
  2082 ;; Data sizes:     COMMON   BANK0   BANK1   BANK3   BANK2
  2083 ;;      Params:         0       0       0       0       0
  2084 ;;      Locals:         0       0       0       0       0
  2085 ;;      Temps:          0       0       0       0       0
  2086 ;;      Totals:         0       0       0       0       0
  2087 ;;Total ram usage:        0 bytes
  2088 ;; Hardware stack levels used: 1
  2089 ;; Hardware stack levels required when called: 3
  2090 ;; This function calls:
  2091 ;;		Nothing
  2092 ;; This function is called by:
  2093 ;;		_main
  2094 ;; This function uses a non-reentrant model
  2095 ;;
  2096                           
  2097     06FA                     _setupPWM:	
  2098                           ;psect for function _setupPWM
  2099                           
  2100     06FA                     l2325:	
  2101                           ;incstack = 0
  2102                           ; Regs used in _setupPWM: [wreg+status,2+status,0]
  2103                           
  2104                           
  2105                           ;newmain.c: 469:     TRISCbits.TRISC2 = 1;
  2106     06FA  1683               	bsf	3,5	;RP0=1, select bank1
  2107     06FB  1303               	bcf	3,6	;RP1=0, select bank1
  2108     06FC  1507               	bsf	7,2	;volatile
  2109     06FD                     l2327:
  2110                           
  2111                           ;newmain.c: 470:     PR2 = 155;
  2112     06FD  309B               	movlw	155
  2113     06FE  0092               	movwf	18	;volatile
  2114                           
  2115                           ;newmain.c: 471:     CCP1CON = 0b00001100;
  2116     06FF  300C               	movlw	12
  2117     0700  1283               	bcf	3,5	;RP0=0, select bank0
  2118     0701  1303               	bcf	3,6	;RP1=0, select bank0
  2119     0702  0097               	movwf	23	;volatile
  2120     0703                     l2329:
  2121                           
  2122                           ;newmain.c: 472:     CCP1CONbits.DC1B = 0b11;
  2123     0703  3030               	movlw	48
  2124     0704  0497               	iorwf	23,f	;volatile
  2125     0705                     l2331:
  2126                           
  2127                           ;newmain.c: 473:     CCPR1L = 11;
  2128     0705  300B               	movlw	11
  2129     0706  0095               	movwf	21	;volatile
  2130     0707                     l2333:
  2131                           
  2132                           ;newmain.c: 474:     PIR1bits.TMR2IF = 0;
  2133     0707  108C               	bcf	12,1	;volatile
  2134     0708                     l2335:
  2135                           
  2136                           ;newmain.c: 475:     T2CONbits.T2CKPS1 = 1;
  2137     0708  1492               	bsf	18,1	;volatile
  2138     0709                     l2337:
  2139                           
  2140                           ;newmain.c: 476:     T2CONbits.T2CKPS0 = 1;
  2141     0709  1412               	bsf	18,0	;volatile
  2142     070A                     l2339:
  2143                           
  2144                           ;newmain.c: 477:     T2CONbits.TMR2ON = 1;
  2145     070A  1512               	bsf	18,2	;volatile
  2146     070B                     l2341:
  2147                           
  2148                           ;newmain.c: 480:    TRISCbits.TRISC1 = 1;
  2149     070B  1683               	bsf	3,5	;RP0=1, select bank1
  2150     070C  1303               	bcf	3,6	;RP1=0, select bank1
  2151     070D  1487               	bsf	7,1	;volatile
  2152     070E                     l2343:
  2153                           
  2154                           ;newmain.c: 481:    CCP2CON = 0b00001100;
  2155     070E  300C               	movlw	12
  2156     070F  1283               	bcf	3,5	;RP0=0, select bank0
  2157     0710  1303               	bcf	3,6	;RP1=0, select bank0
  2158     0711  009D               	movwf	29	;volatile
  2159     0712                     l2345:
  2160                           
  2161                           ;newmain.c: 482:    CCP2CONbits.DC2B0 = 1;
  2162     0712  161D               	bsf	29,4	;volatile
  2163     0713                     l2347:
  2164                           
  2165                           ;newmain.c: 483:    CCP2CONbits.DC2B1 = 1;
  2166     0713  169D               	bsf	29,5	;volatile
  2167     0714                     l2349:
  2168                           
  2169                           ;newmain.c: 484:    CCPR2L = 11;
  2170     0714  300B               	movlw	11
  2171     0715  009B               	movwf	27	;volatile
  2172     0716                     l228:	
  2173                           ;newmain.c: 486:    while (PIR1bits.TMR2IF == 0);
  2174                           
  2175     0716  1C8C               	btfss	12,1	;volatile
  2176     0717  2F19               	goto	u1851
  2177     0718  2F1A               	goto	u1850
  2178     0719                     u1851:
  2179     0719  2F16               	goto	l228
  2180     071A                     u1850:
  2181     071A                     l230:
  2182                           
  2183                           ;newmain.c: 487:     PIR1bits.TMR2IF = 0;
  2184     071A  108C               	bcf	12,1	;volatile
  2185                           
  2186                           ;newmain.c: 488:     TRISCbits.TRISC2 = 0;
  2187     071B  1683               	bsf	3,5	;RP0=1, select bank1
  2188     071C  1303               	bcf	3,6	;RP1=0, select bank1
  2189     071D  1107               	bcf	7,2	;volatile
  2190                           
  2191                           ;newmain.c: 489:     TRISCbits.TRISC1 = 0;
  2192     071E  1087               	bcf	7,1	;volatile
  2193     071F                     l231:
  2194     071F  0008               	return
  2195     0720                     __end_of_setupPWM:
  2196                           
  2197                           	psect	text4
  2198     0768                     __ptext4:	
  2199 ;; *************** function _setupADC *****************
  2200 ;; Defined at:
  2201 ;;		line 448 in file "newmain.c"
  2202 ;; Parameters:    Size  Location     Type
  2203 ;;		None
  2204 ;; Auto vars:     Size  Location     Type
  2205 ;;		None
  2206 ;; Return value:  Size  Location     Type
  2207 ;;                  1    wreg      void 
  2208 ;; Registers used:
  2209 ;;		wreg
  2210 ;; Tracked objects:
  2211 ;;		On entry : 0/0
  2212 ;;		On exit  : 0/0
  2213 ;;		Unchanged: 0/0
  2214 ;; Data sizes:     COMMON   BANK0   BANK1   BANK3   BANK2
  2215 ;;      Params:         0       0       0       0       0
  2216 ;;      Locals:         0       0       0       0       0
  2217 ;;      Temps:          0       0       1       0       0
  2218 ;;      Totals:         0       0       1       0       0
  2219 ;;Total ram usage:        1 bytes
  2220 ;; Hardware stack levels used: 1
  2221 ;; Hardware stack levels required when called: 3
  2222 ;; This function calls:
  2223 ;;		Nothing
  2224 ;; This function is called by:
  2225 ;;		_main
  2226 ;; This function uses a non-reentrant model
  2227 ;;
  2228                           
  2229     0768                     _setupADC:	
  2230                           ;psect for function _setupADC
  2231                           
  2232     0768                     l2321:	
  2233                           ;incstack = 0
  2234                           ; Regs used in _setupADC: [wreg]
  2235                           
  2236                           
  2237                           ;newmain.c: 449:     ADCON0bits.ADCS1 = 0;
  2238     0768  1283               	bcf	3,5	;RP0=0, select bank0
  2239     0769  1303               	bcf	3,6	;RP1=0, select bank0
  2240     076A  139F               	bcf	31,7	;volatile
  2241                           
  2242                           ;newmain.c: 450:     ADCON0bits.ADCS0 = 0;
  2243     076B  131F               	bcf	31,6	;volatile
  2244                           
  2245                           ;newmain.c: 452:     ADCON1bits.VCFG1 = 0;
  2246     076C  1683               	bsf	3,5	;RP0=1, select bank1
  2247     076D  1303               	bcf	3,6	;RP1=0, select bank1
  2248     076E  129F               	bcf	31,5	;volatile
  2249                           
  2250                           ;newmain.c: 453:     ADCON1bits.VCFG0 = 0;
  2251     076F  121F               	bcf	31,4	;volatile
  2252                           
  2253                           ;newmain.c: 455:     ADCON1bits.ADFM = 0;
  2254     0770  139F               	bcf	31,7	;volatile
  2255                           
  2256                           ;newmain.c: 457:     ADCON0bits.CHS3 = 0;
  2257     0771  1283               	bcf	3,5	;RP0=0, select bank0
  2258     0772  1303               	bcf	3,6	;RP1=0, select bank0
  2259     0773  129F               	bcf	31,5	;volatile
  2260                           
  2261                           ;newmain.c: 458:     ADCON0bits.CHS2 = 0;
  2262     0774  121F               	bcf	31,4	;volatile
  2263                           
  2264                           ;newmain.c: 459:     ADCON0bits.CHS1 = 0;
  2265     0775  119F               	bcf	31,3	;volatile
  2266                           
  2267                           ;newmain.c: 460:     ADCON0bits.CHS0 = 0;
  2268     0776  111F               	bcf	31,2	;volatile
  2269                           
  2270                           ;newmain.c: 462:     ADCON0bits.ADON = 1;
  2271     0777  141F               	bsf	31,0	;volatile
  2272     0778                     l2323:
  2273                           
  2274                           ;newmain.c: 463:     _delay((unsigned long)((100)*(500000/4000000.0)));
  2275     0778  3003               	movlw	3
  2276     0779  1683               	bsf	3,5	;RP0=1, select bank1
  2277     077A  1303               	bcf	3,6	;RP1=0, select bank1
  2278     077B  00A0               	movwf	??_setupADC^(0+128)
  2279     077C                     u2267:
  2280     077C  0BA0               	decfsz	??_setupADC^(0+128),f
  2281     077D  2F7C               	goto	u2267
  2282     077E                     l225:
  2283     077E  0008               	return
  2284     077F                     __end_of_setupADC:
  2285                           
  2286                           	psect	text5
  2287     0634                     __ptext5:	
  2288 ;; *************** function _setup *****************
  2289 ;; Defined at:
  2290 ;;		line 383 in file "newmain.c"
  2291 ;; Parameters:    Size  Location     Type
  2292 ;;		None
  2293 ;; Auto vars:     Size  Location     Type
  2294 ;;		None
  2295 ;; Return value:  Size  Location     Type
  2296 ;;                  1    wreg      void 
  2297 ;; Registers used:
  2298 ;;		wreg, status,2, status,0
  2299 ;; Tracked objects:
  2300 ;;		On entry : 0/0
  2301 ;;		On exit  : 0/0
  2302 ;;		Unchanged: 0/0
  2303 ;; Data sizes:     COMMON   BANK0   BANK1   BANK3   BANK2
  2304 ;;      Params:         0       0       0       0       0
  2305 ;;      Locals:         0       0       0       0       0
  2306 ;;      Temps:          0       0       0       0       0
  2307 ;;      Totals:         0       0       0       0       0
  2308 ;;Total ram usage:        0 bytes
  2309 ;; Hardware stack levels used: 1
  2310 ;; Hardware stack levels required when called: 3
  2311 ;; This function calls:
  2312 ;;		Nothing
  2313 ;; This function is called by:
  2314 ;;		_main
  2315 ;; This function uses a non-reentrant model
  2316 ;;
  2317                           
  2318     0634                     _setup:	
  2319                           ;psect for function _setup
  2320                           
  2321     0634                     l2239:	
  2322                           ;incstack = 0
  2323                           ; Regs used in _setup: [wreg+status,2+status,0]
  2324                           
  2325                           
  2326                           ;newmain.c: 385:     ANSELH = 0;
  2327     0634  1683               	bsf	3,5	;RP0=1, select bank3
  2328     0635  1703               	bsf	3,6	;RP1=1, select bank3
  2329     0636  0189               	clrf	9	;volatile
  2330     0637                     l2241:
  2331                           
  2332                           ;newmain.c: 386:     ANSELbits.ANS0 = 1;
  2333     0637  1408               	bsf	8,0	;volatile
  2334     0638                     l2243:
  2335                           
  2336                           ;newmain.c: 387:     ANSELbits.ANS1 = 1;
  2337     0638  1488               	bsf	8,1	;volatile
  2338     0639                     l2245:
  2339                           
  2340                           ;newmain.c: 388:     ANSELbits.ANS2 = 1;
  2341     0639  1508               	bsf	8,2	;volatile
  2342     063A                     l2247:
  2343                           
  2344                           ;newmain.c: 389:     ANSELbits.ANS3 = 1;
  2345     063A  1588               	bsf	8,3	;volatile
  2346     063B                     l2249:
  2347                           
  2348                           ;newmain.c: 392:     TRISBbits.TRISB7 = 1;
  2349     063B  1683               	bsf	3,5	;RP0=1, select bank1
  2350     063C  1303               	bcf	3,6	;RP1=0, select bank1
  2351     063D  1786               	bsf	6,7	;volatile
  2352     063E                     l2251:
  2353                           
  2354                           ;newmain.c: 393:     TRISBbits.TRISB6 = 1;
  2355     063E  1706               	bsf	6,6	;volatile
  2356     063F                     l2253:
  2357                           
  2358                           ;newmain.c: 394:     TRISBbits.TRISB5 = 1;
  2359     063F  1686               	bsf	6,5	;volatile
  2360     0640                     l2255:
  2361                           
  2362                           ;newmain.c: 395:     TRISBbits.TRISB4 = 1;
  2363     0640  1606               	bsf	6,4	;volatile
  2364     0641                     l2257:
  2365                           
  2366                           ;newmain.c: 396:     TRISBbits.TRISB3 = 1;
  2367     0641  1586               	bsf	6,3	;volatile
  2368     0642                     l2259:
  2369                           
  2370                           ;newmain.c: 397:     TRISCbits.TRISC0 = 0;
  2371     0642  1007               	bcf	7,0	;volatile
  2372     0643                     l2261:
  2373                           
  2374                           ;newmain.c: 398:     TRISCbits.TRISC3 = 0;
  2375     0643  1187               	bcf	7,3	;volatile
  2376                           
  2377                           ;newmain.c: 399:     TRISD = 0;
  2378     0644  0188               	clrf	8	;volatile
  2379                           
  2380                           ;newmain.c: 402:     PORTA = 0;
  2381     0645  1283               	bcf	3,5	;RP0=0, select bank0
  2382     0646  1303               	bcf	3,6	;RP1=0, select bank0
  2383     0647  0185               	clrf	5	;volatile
  2384                           
  2385                           ;newmain.c: 403:     PORTB = 0;
  2386     0648  0186               	clrf	6	;volatile
  2387                           
  2388                           ;newmain.c: 404:     PORTD = 0;
  2389     0649  0188               	clrf	8	;volatile
  2390     064A                     l2263:
  2391                           
  2392                           ;newmain.c: 407:     INTCONbits.GIE = 1;
  2393     064A  178B               	bsf	11,7	;volatile
  2394     064B                     l2265:
  2395                           
  2396                           ;newmain.c: 408:     INTCONbits.PEIE = 1;
  2397     064B  170B               	bsf	11,6	;volatile
  2398     064C                     l2267:
  2399                           
  2400                           ;newmain.c: 409:     INTCONbits.RBIE = 1;
  2401     064C  158B               	bsf	11,3	;volatile
  2402     064D                     l2269:
  2403                           
  2404                           ;newmain.c: 410:     INTCONbits.RBIF = 0;
  2405     064D  100B               	bcf	11,0	;volatile
  2406     064E                     l2271:
  2407                           
  2408                           ;newmain.c: 411:     INTCONbits.T0IE = 1;
  2409     064E  168B               	bsf	11,5	;volatile
  2410     064F                     l2273:
  2411                           
  2412                           ;newmain.c: 412:     INTCONbits.T0IF = 0;
  2413     064F  110B               	bcf	11,2	;volatile
  2414     0650                     l2275:
  2415                           
  2416                           ;newmain.c: 414:     PIE1bits.ADIE = 1;
  2417     0650  1683               	bsf	3,5	;RP0=1, select bank1
  2418     0651  1303               	bcf	3,6	;RP1=0, select bank1
  2419     0652  170C               	bsf	12,6	;volatile
  2420     0653                     l2277:
  2421                           
  2422                           ;newmain.c: 415:     PIR1bits.ADIF = 0;
  2423     0653  1283               	bcf	3,5	;RP0=0, select bank0
  2424     0654  1303               	bcf	3,6	;RP1=0, select bank0
  2425     0655  130C               	bcf	12,6	;volatile
  2426     0656                     l2279:
  2427                           
  2428                           ;newmain.c: 416:     PIE1bits.RCIE = 1;
  2429     0656  1683               	bsf	3,5	;RP0=1, select bank1
  2430     0657  1303               	bcf	3,6	;RP1=0, select bank1
  2431     0658  168C               	bsf	12,5	;volatile
  2432     0659                     l2281:
  2433                           
  2434                           ;newmain.c: 417:     PIR1bits.RCIF = 0;
  2435     0659  1283               	bcf	3,5	;RP0=0, select bank0
  2436     065A  1303               	bcf	3,6	;RP1=0, select bank0
  2437     065B  128C               	bcf	12,5	;volatile
  2438     065C                     l2283:
  2439                           
  2440                           ;newmain.c: 420:     OSCCONbits.IRCF = 0b011;
  2441     065C  1683               	bsf	3,5	;RP0=1, select bank1
  2442     065D  1303               	bcf	3,6	;RP1=0, select bank1
  2443     065E  080F               	movf	15,w	;volatile
  2444     065F  398F               	andlw	-113
  2445     0660  3830               	iorlw	48
  2446     0661  008F               	movwf	15	;volatile
  2447     0662                     l2285:
  2448                           
  2449                           ;newmain.c: 421:     OSCCONbits.SCS = 1;
  2450     0662  140F               	bsf	15,0	;volatile
  2451     0663                     l2287:
  2452                           
  2453                           ;newmain.c: 424:     OPTION_REGbits.T0CS = 0;
  2454     0663  1281               	bcf	1,5	;volatile
  2455     0664                     l2289:
  2456                           
  2457                           ;newmain.c: 425:     OPTION_REGbits.PSA = 0;
  2458     0664  1181               	bcf	1,3	;volatile
  2459     0665                     l2291:
  2460                           
  2461                           ;newmain.c: 426:     OPTION_REGbits.PS2 = 1;
  2462     0665  1501               	bsf	1,2	;volatile
  2463     0666                     l2293:
  2464                           
  2465                           ;newmain.c: 427:     OPTION_REGbits.PS1 = 1;
  2466     0666  1481               	bsf	1,1	;volatile
  2467     0667                     l2295:
  2468                           
  2469                           ;newmain.c: 428:     OPTION_REGbits.PS0 = 1;
  2470     0667  1401               	bsf	1,0	;volatile
  2471     0668                     l2297:
  2472                           
  2473                           ;newmain.c: 431:     OPTION_REGbits.nRBPU = 0;
  2474     0668  1381               	bcf	1,7	;volatile
  2475     0669                     l2299:
  2476                           
  2477                           ;newmain.c: 432:     WPUBbits.WPUB7 = 1;
  2478     0669  1795               	bsf	21,7	;volatile
  2479     066A                     l2301:
  2480                           
  2481                           ;newmain.c: 433:     WPUBbits.WPUB6 = 1;
  2482     066A  1715               	bsf	21,6	;volatile
  2483     066B                     l2303:
  2484                           
  2485                           ;newmain.c: 434:     WPUBbits.WPUB5 = 1;
  2486     066B  1695               	bsf	21,5	;volatile
  2487     066C                     l2305:
  2488                           
  2489                           ;newmain.c: 435:     WPUBbits.WPUB4 = 1;
  2490     066C  1615               	bsf	21,4	;volatile
  2491     066D                     l2307:
  2492                           
  2493                           ;newmain.c: 436:     WPUBbits.WPUB3 = 1;
  2494     066D  1595               	bsf	21,3	;volatile
  2495     066E                     l2309:
  2496                           
  2497                           ;newmain.c: 438:     IOCBbits.IOCB7 = 1;
  2498     066E  1796               	bsf	22,7	;volatile
  2499     066F                     l2311:
  2500                           
  2501                           ;newmain.c: 439:     IOCBbits.IOCB6 = 0;
  2502     066F  1316               	bcf	22,6	;volatile
  2503     0670                     l2313:
  2504                           
  2505                           ;newmain.c: 440:     IOCBbits.IOCB5 = 0;
  2506     0670  1296               	bcf	22,5	;volatile
  2507     0671                     l2315:
  2508                           
  2509                           ;newmain.c: 441:     IOCBbits.IOCB4 = 0;
  2510     0671  1216               	bcf	22,4	;volatile
  2511     0672                     l2317:
  2512                           
  2513                           ;newmain.c: 442:     IOCBbits.IOCB3 = 0;
  2514     0672  1196               	bcf	22,3	;volatile
  2515     0673                     l2319:
  2516                           
  2517                           ;newmain.c: 444:     EEADRH = 0;
  2518     0673  1283               	bcf	3,5	;RP0=0, select bank2
  2519     0674  1703               	bsf	3,6	;RP1=1, select bank2
  2520     0675  018F               	clrf	15	;volatile
  2521     0676                     l222:
  2522     0676  0008               	return
  2523     0677                     __end_of_setup:
  2524                           
  2525                           	psect	text6
  2526     07A7                     __ptext6:	
  2527 ;; *************** function _readEEPROM *****************
  2528 ;; Defined at:
  2529 ;;		line 516 in file "newmain.c"
  2530 ;; Parameters:    Size  Location     Type
  2531 ;;		None
  2532 ;; Auto vars:     Size  Location     Type
  2533 ;;		None
  2534 ;; Return value:  Size  Location     Type
  2535 ;;                  1    wreg      unsigned char 
  2536 ;; Registers used:
  2537 ;;		wreg
  2538 ;; Tracked objects:
  2539 ;;		On entry : 0/0
  2540 ;;		On exit  : 0/0
  2541 ;;		Unchanged: 0/0
  2542 ;; Data sizes:     COMMON   BANK0   BANK1   BANK3   BANK2
  2543 ;;      Params:         0       0       0       0       0
  2544 ;;      Locals:         0       0       0       0       0
  2545 ;;      Temps:          0       0       0       0       0
  2546 ;;      Totals:         0       0       0       0       0
  2547 ;;Total ram usage:        0 bytes
  2548 ;; Hardware stack levels used: 1
  2549 ;; Hardware stack levels required when called: 3
  2550 ;; This function calls:
  2551 ;;		Nothing
  2552 ;; This function is called by:
  2553 ;;		_main
  2554 ;; This function uses a non-reentrant model
  2555 ;;
  2556                           
  2557     07A7                     _readEEPROM:	
  2558                           ;psect for function _readEEPROM
  2559                           
  2560     07A7                     l2391:	
  2561                           ;incstack = 0
  2562                           ; Regs used in _readEEPROM: [wreg]
  2563                           
  2564     07A7                     l237:	
  2565                           ;newmain.c: 517:     while(WR||RD);
  2566                           
  2567     07A7  1683               	bsf	3,5	;RP0=1, select bank3
  2568     07A8  1703               	bsf	3,6	;RP1=1, select bank3
  2569     07A9  188C               	btfsc	12,1	;volsfr
  2570     07AA  2FAC               	goto	u1911
  2571     07AB  2FAD               	goto	u1910
  2572     07AC                     u1911:
  2573     07AC  2FA7               	goto	l237
  2574     07AD                     u1910:
  2575     07AD                     l2393:
  2576     07AD  180C               	btfsc	12,0	;volsfr
  2577     07AE  2FB0               	goto	u1921
  2578     07AF  2FB1               	goto	u1920
  2579     07B0                     u1921:
  2580     07B0  2FA7               	goto	l237
  2581     07B1                     u1920:
  2582     07B1                     l239:
  2583                           
  2584                           ;newmain.c: 518:     EECON1bits.EEPGD = 0;
  2585     07B1  138C               	bcf	12,7	;volsfr
  2586                           
  2587                           ;newmain.c: 519:     EECON1bits.RD = 1;
  2588     07B2  140C               	bsf	12,0	;volsfr
  2589     07B3                     l2395:
  2590                           
  2591                           ;newmain.c: 520:     dato = EEDATA;
  2592     07B3  1283               	bcf	3,5	;RP0=0, select bank2
  2593     07B4  1703               	bsf	3,6	;RP1=1, select bank2
  2594     07B5  080C               	movf	12,w	;volatile
  2595     07B6  00FD               	movwf	_dato
  2596                           
  2597                           ;newmain.c: 521:     return dato;
  2598     07B7  087D               	movf	_dato,w
  2599     07B8                     l240:
  2600     07B8  0008               	return
  2601     07B9                     __end_of_readEEPROM:
  2602                           
  2603                           	psect	text7
  2604     06AC                     __ptext7:	
  2605 ;; *************** function _cadena *****************
  2606 ;; Defined at:
  2607 ;;		line 551 in file "newmain.c"
  2608 ;; Parameters:    Size  Location     Type
  2609 ;;  cursor          1    wreg     PTR unsigned char 
  2610 ;;		 -> STR_1(121), 
  2611 ;; Auto vars:     Size  Location     Type
  2612 ;;  cursor          1    1[BANK1 ] PTR unsigned char 
  2613 ;;		 -> STR_1(121), 
  2614 ;; Return value:  Size  Location     Type
  2615 ;;                  1    wreg      void 
  2616 ;; Registers used:
  2617 ;;		wreg, fsr0l, fsr0h, status,2, status,0, pclath
  2618 ;; Tracked objects:
  2619 ;;		On entry : 0/0
  2620 ;;		On exit  : 0/0
  2621 ;;		Unchanged: 0/0
  2622 ;; Data sizes:     COMMON   BANK0   BANK1   BANK3   BANK2
  2623 ;;      Params:         0       0       0       0       0
  2624 ;;      Locals:         0       0       1       0       0
  2625 ;;      Temps:          0       0       1       0       0
  2626 ;;      Totals:         0       0       2       0       0
  2627 ;;Total ram usage:        2 bytes
  2628 ;; Hardware stack levels used: 1
  2629 ;; Hardware stack levels required when called: 3
  2630 ;; This function calls:
  2631 ;;		Nothing
  2632 ;; This function is called by:
  2633 ;;		_main
  2634 ;; This function uses a non-reentrant model
  2635 ;;
  2636                           
  2637     06AC                     _cadena:	
  2638                           ;psect for function _cadena
  2639                           
  2640                           
  2641                           ;incstack = 0
  2642                           ; Regs used in _cadena: [wreg-fsr0h+status,2+status,0+pclath]
  2643                           ;cadena@cursor stored from wreg
  2644     06AC  1683               	bsf	3,5	;RP0=1, select bank1
  2645     06AD  1303               	bcf	3,6	;RP1=0, select bank1
  2646     06AE  00A1               	movwf	cadena@cursor^(0+128)
  2647     06AF                     l2367:
  2648                           
  2649                           ;newmain.c: 552:     while (*cursor != '\0'){
  2650     06AF  2EC7               	goto	l2373
  2651     06B0                     l263:
  2652     06B0  1283               	bcf	3,5	;RP0=0, select bank0
  2653     06B1  1E0C               	btfss	12,4	;volatile
  2654     06B2  2EB4               	goto	u1861
  2655     06B3  2EB5               	goto	u1860
  2656     06B4                     u1861:
  2657     06B4  2EB0               	goto	l263
  2658     06B5                     u1860:
  2659     06B5                     l2369:
  2660                           
  2661                           ;newmain.c: 554:             TXREG = *cursor;
  2662     06B5  1683               	bsf	3,5	;RP0=1, select bank1
  2663     06B6  1303               	bcf	3,6	;RP1=0, select bank1
  2664     06B7  0821               	movf	cadena@cursor^(0+128),w
  2665     06B8  0084               	movwf	4
  2666     06B9  120A  118A  254C  120A  118A  	fcall	stringdir
  2667     06BE  1283               	bcf	3,5	;RP0=0, select bank0
  2668     06BF  1303               	bcf	3,6	;RP1=0, select bank0
  2669     06C0  0099               	movwf	25	;volatile
  2670     06C1                     l2371:
  2671                           
  2672                           ;newmain.c: 555:             *cursor++;
  2673     06C1  3001               	movlw	1
  2674     06C2  1683               	bsf	3,5	;RP0=1, select bank1
  2675     06C3  1303               	bcf	3,6	;RP1=0, select bank1
  2676     06C4  00A0               	movwf	??_cadena^(0+128)
  2677     06C5  0820               	movf	??_cadena^(0+128),w
  2678     06C6  07A1               	addwf	cadena@cursor^(0+128),f
  2679     06C7                     l2373:
  2680                           
  2681                           ;newmain.c: 552:     while (*cursor != '\0'){
  2682     06C7  0821               	movf	cadena@cursor^(0+128),w
  2683     06C8  0084               	movwf	4
  2684     06C9  120A  118A  254C  120A  118A  	fcall	stringdir
  2685     06CE  3A00               	xorlw	0
  2686     06CF  1D03               	skipz
  2687     06D0  2ED2               	goto	u1871
  2688     06D1  2ED3               	goto	u1870
  2689     06D2                     u1871:
  2690     06D2  2EB0               	goto	l263
  2691     06D3                     u1870:
  2692     06D3                     l267:
  2693     06D3  0008               	return
  2694     06D4                     __end_of_cadena:
  2695                           
  2696                           	psect	text8
  2697     033B                     __ptext8:	
  2698 ;; *************** function _isr *****************
  2699 ;; Defined at:
  2700 ;;		line 60 in file "newmain.c"
  2701 ;; Parameters:    Size  Location     Type
  2702 ;;		None
  2703 ;; Auto vars:     Size  Location     Type
  2704 ;;		None
  2705 ;; Return value:  Size  Location     Type
  2706 ;;                  1    wreg      void 
  2707 ;; Registers used:
  2708 ;;		wreg, fsr0l, fsr0h, status,2, status,0, pclath, cstack
  2709 ;; Tracked objects:
  2710 ;;		On entry : 0/0
  2711 ;;		On exit  : 0/0
  2712 ;;		Unchanged: 0/0
  2713 ;; Data sizes:     COMMON   BANK0   BANK1   BANK3   BANK2
  2714 ;;      Params:         0       0       0       0       0
  2715 ;;      Locals:         0       0       0       0       0
  2716 ;;      Temps:          0       5       0       0       0
  2717 ;;      Totals:         0       5       0       0       0
  2718 ;;Total ram usage:        5 bytes
  2719 ;; Hardware stack levels used: 1
  2720 ;; Hardware stack levels required when called: 2
  2721 ;; This function calls:
  2722 ;;		_delay
  2723 ;;		_map
  2724 ;; This function is called by:
  2725 ;;		Interrupt level 1
  2726 ;; This function uses a non-reentrant model
  2727 ;;
  2728                           
  2729     033B                     _isr:	
  2730                           ;psect for function _isr
  2731                           
  2732     033B                     i1l1777:
  2733                           
  2734                           ;newmain.c: 61:     if (INTCONbits.RBIF == 1){
  2735     033B  1C0B               	btfss	11,0	;volatile
  2736     033C  2B3E               	goto	u116_21
  2737     033D  2B3F               	goto	u116_20
  2738     033E                     u116_21:
  2739     033E  2B65               	goto	i1l1797
  2740     033F                     u116_20:
  2741     033F                     i1l1779:
  2742                           
  2743                           ;newmain.c: 62:         INTCONbits.RBIF = 0;
  2744     033F  100B               	bcf	11,0	;volatile
  2745                           
  2746                           ;newmain.c: 63:         if (PORTBbits.RB7 == 0){
  2747     0340  1B86               	btfsc	6,7	;volatile
  2748     0341  2B43               	goto	u117_21
  2749     0342  2B44               	goto	u117_20
  2750     0343                     u117_21:
  2751     0343  2B48               	goto	i1l1783
  2752     0344                     u117_20:
  2753     0344                     i1l1781:
  2754                           
  2755                           ;newmain.c: 64:             bandera = 1;}
  2756     0344  3001               	movlw	1
  2757     0345  00DA               	movwf	_bandera
  2758     0346  3000               	movlw	0
  2759     0347  00DB               	movwf	_bandera+1
  2760     0348                     i1l1783:
  2761                           
  2762                           ;newmain.c: 65:         if (PORTBbits.RB7 == 1 && bandera == 1){
  2763     0348  1F86               	btfss	6,7	;volatile
  2764     0349  2B4B               	goto	u118_21
  2765     034A  2B4C               	goto	u118_20
  2766     034B                     u118_21:
  2767     034B  2B65               	goto	i1l1797
  2768     034C                     u118_20:
  2769     034C                     i1l1785:
  2770     034C  035A               	decf	_bandera,w
  2771     034D  045B               	iorwf	_bandera+1,w
  2772     034E  1D03               	btfss	3,2
  2773     034F  2B51               	goto	u119_21
  2774     0350  2B52               	goto	u119_20
  2775     0351                     u119_21:
  2776     0351  2B65               	goto	i1l1797
  2777     0352                     u119_20:
  2778     0352                     i1l1787:
  2779                           
  2780                           ;newmain.c: 66:             selector++;
  2781     0352  3001               	movlw	1
  2782     0353  07DC               	addwf	_selector,f
  2783     0354  1803               	skipnc
  2784     0355  0ADD               	incf	_selector+1,f
  2785     0356  3000               	movlw	0
  2786     0357  07DD               	addwf	_selector+1,f
  2787     0358                     i1l1789:
  2788                           
  2789                           ;newmain.c: 67:             loop = 0;
  2790     0358  01D8               	clrf	_loop
  2791     0359  01D9               	clrf	_loop+1
  2792     035A                     i1l1791:
  2793                           
  2794                           ;newmain.c: 68:             bandera = 0;
  2795     035A  01DA               	clrf	_bandera
  2796     035B  01DB               	clrf	_bandera+1
  2797     035C                     i1l1793:
  2798                           
  2799                           ;newmain.c: 69:             if (selector == 4){
  2800     035C  3004               	movlw	4
  2801     035D  065C               	xorwf	_selector,w
  2802     035E  045D               	iorwf	_selector+1,w
  2803     035F  1D03               	btfss	3,2
  2804     0360  2B62               	goto	u120_21
  2805     0361  2B63               	goto	u120_20
  2806     0362                     u120_21:
  2807     0362  2B65               	goto	i1l1797
  2808     0363                     u120_20:
  2809     0363                     i1l1795:
  2810                           
  2811                           ;newmain.c: 70:                 selector = 0;}
  2812     0363  01DC               	clrf	_selector
  2813     0364  01DD               	clrf	_selector+1
  2814     0365                     i1l1797:
  2815                           
  2816                           ;newmain.c: 74:     if (PIR1bits.ADIF == 1){
  2817     0365  1F0C               	btfss	12,6	;volatile
  2818     0366  2B68               	goto	u121_21
  2819     0367  2B69               	goto	u121_20
  2820     0368                     u121_21:
  2821     0368  2C08               	goto	i1l1825
  2822     0369                     u121_20:
  2823     0369                     i1l1799:
  2824                           
  2825                           ;newmain.c: 75:         if (ADCON0bits.CHS == 0b0000){
  2826     0369  0C1F               	rrf	31,w	;volatile
  2827     036A  00CF               	movwf	??_isr
  2828     036B  0C4F               	rrf	??_isr,w
  2829     036C  390F               	andlw	15
  2830     036D  3A00               	xorlw	0
  2831     036E  1D03               	skipz
  2832     036F  2B71               	goto	u122_21
  2833     0370  2B72               	goto	u122_20
  2834     0371                     u122_21:
  2835     0371  2B90               	goto	i1l1805
  2836     0372                     u122_20:
  2837     0372                     i1l1801:
  2838                           
  2839                           ;newmain.c: 76:             CCPR1L = map(ADRESH, 0, 255, 3, 20);
  2840     0372  3000               	movlw	0
  2841     0373  00C7               	movwf	map@inputmin
  2842     0374  00C8               	movwf	map@inputmin+1
  2843     0375  30FF               	movlw	255
  2844     0376  00C9               	movwf	map@inputmax
  2845     0377  3000               	movlw	0
  2846     0378  00CA               	movwf	map@inputmax+1
  2847     0379  3003               	movlw	3
  2848     037A  00CB               	movwf	map@outmin
  2849     037B  3000               	movlw	0
  2850     037C  00CC               	movwf	map@outmin+1
  2851     037D  3014               	movlw	20
  2852     037E  00CD               	movwf	map@outmax
  2853     037F  3000               	movlw	0
  2854     0380  00CE               	movwf	map@outmax+1
  2855     0381  081E               	movf	30,w	;volatile
  2856     0382  120A  118A  2677  120A  118A  	fcall	_map
  2857     0387  1283               	bcf	3,5	;RP0=0, select bank0
  2858     0388  1303               	bcf	3,6	;RP1=0, select bank0
  2859     0389  0847               	movf	?_map,w
  2860     038A  0095               	movwf	21	;volatile
  2861     038B                     i1l1803:
  2862                           
  2863                           ;newmain.c: 77:             ADCON0bits.CHS = 0b0001;}
  2864     038B  081F               	movf	31,w	;volatile
  2865     038C  39C3               	andlw	-61
  2866     038D  3804               	iorlw	4
  2867     038E  009F               	movwf	31	;volatile
  2868     038F  2C07               	goto	i1l1823
  2869     0390                     i1l1805:
  2870     0390  0C1F               	rrf	31,w	;volatile
  2871     0391  00CF               	movwf	??_isr
  2872     0392  0C4F               	rrf	??_isr,w
  2873     0393  390F               	andlw	15
  2874     0394  3A01               	xorlw	1
  2875     0395  1D03               	skipz
  2876     0396  2B98               	goto	u123_21
  2877     0397  2B99               	goto	u123_20
  2878     0398                     u123_21:
  2879     0398  2BB7               	goto	i1l1811
  2880     0399                     u123_20:
  2881     0399                     i1l1807:
  2882                           
  2883                           ;newmain.c: 80:             CCPR2L = map(ADRESH, 0, 255, 3, 20);
  2884     0399  3000               	movlw	0
  2885     039A  00C7               	movwf	map@inputmin
  2886     039B  00C8               	movwf	map@inputmin+1
  2887     039C  30FF               	movlw	255
  2888     039D  00C9               	movwf	map@inputmax
  2889     039E  3000               	movlw	0
  2890     039F  00CA               	movwf	map@inputmax+1
  2891     03A0  3003               	movlw	3
  2892     03A1  00CB               	movwf	map@outmin
  2893     03A2  3000               	movlw	0
  2894     03A3  00CC               	movwf	map@outmin+1
  2895     03A4  3014               	movlw	20
  2896     03A5  00CD               	movwf	map@outmax
  2897     03A6  3000               	movlw	0
  2898     03A7  00CE               	movwf	map@outmax+1
  2899     03A8  081E               	movf	30,w	;volatile
  2900     03A9  120A  118A  2677  120A  118A  	fcall	_map
  2901     03AE  1283               	bcf	3,5	;RP0=0, select bank0
  2902     03AF  1303               	bcf	3,6	;RP1=0, select bank0
  2903     03B0  0847               	movf	?_map,w
  2904     03B1  009B               	movwf	27	;volatile
  2905     03B2                     i1l1809:
  2906                           
  2907                           ;newmain.c: 81:             ADCON0bits.CHS = 0b0010;}
  2908     03B2  081F               	movf	31,w	;volatile
  2909     03B3  39C3               	andlw	-61
  2910     03B4  3808               	iorlw	8
  2911     03B5  009F               	movwf	31	;volatile
  2912     03B6  2C07               	goto	i1l1823
  2913     03B7                     i1l1811:
  2914     03B7  0C1F               	rrf	31,w	;volatile
  2915     03B8  00CF               	movwf	??_isr
  2916     03B9  0C4F               	rrf	??_isr,w
  2917     03BA  390F               	andlw	15
  2918     03BB  3A02               	xorlw	2
  2919     03BC  1D03               	skipz
  2920     03BD  2BBF               	goto	u124_21
  2921     03BE  2BC0               	goto	u124_20
  2922     03BF                     u124_21:
  2923     03BF  2BE0               	goto	i1l1817
  2924     03C0                     u124_20:
  2925     03C0                     i1l1813:
  2926                           
  2927                           ;newmain.c: 84:             pot = map(ADRESH, 0, 255, 1, 20);
  2928     03C0  3000               	movlw	0
  2929     03C1  00C7               	movwf	map@inputmin
  2930     03C2  00C8               	movwf	map@inputmin+1
  2931     03C3  30FF               	movlw	255
  2932     03C4  00C9               	movwf	map@inputmax
  2933     03C5  3000               	movlw	0
  2934     03C6  00CA               	movwf	map@inputmax+1
  2935     03C7  3001               	movlw	1
  2936     03C8  00CB               	movwf	map@outmin
  2937     03C9  3000               	movlw	0
  2938     03CA  00CC               	movwf	map@outmin+1
  2939     03CB  3014               	movlw	20
  2940     03CC  00CD               	movwf	map@outmax
  2941     03CD  3000               	movlw	0
  2942     03CE  00CE               	movwf	map@outmax+1
  2943     03CF  081E               	movf	30,w	;volatile
  2944     03D0  120A  118A  2677  120A  118A  	fcall	_map
  2945     03D5  1283               	bcf	3,5	;RP0=0, select bank0
  2946     03D6  1303               	bcf	3,6	;RP1=0, select bank0
  2947     03D7  0848               	movf	?_map+1,w
  2948     03D8  00D7               	movwf	_pot+1
  2949     03D9  0847               	movf	?_map,w
  2950     03DA  00D6               	movwf	_pot
  2951     03DB                     i1l1815:
  2952                           
  2953                           ;newmain.c: 85:             ADCON0bits.CHS = 0b0011;}
  2954     03DB  081F               	movf	31,w	;volatile
  2955     03DC  39C3               	andlw	-61
  2956     03DD  380C               	iorlw	12
  2957     03DE  009F               	movwf	31	;volatile
  2958     03DF  2C07               	goto	i1l1823
  2959     03E0                     i1l1817:
  2960     03E0  0C1F               	rrf	31,w	;volatile
  2961     03E1  00CF               	movwf	??_isr
  2962     03E2  0C4F               	rrf	??_isr,w
  2963     03E3  390F               	andlw	15
  2964     03E4  3A03               	xorlw	3
  2965     03E5  1D03               	skipz
  2966     03E6  2BE8               	goto	u125_21
  2967     03E7  2BE9               	goto	u125_20
  2968     03E8                     u125_21:
  2969     03E8  2C07               	goto	i1l148
  2970     03E9                     u125_20:
  2971     03E9                     i1l1819:
  2972                           
  2973                           ;newmain.c: 88:             pot1 = map(ADRESH, 0, 255, 1, 20);
  2974     03E9  3000               	movlw	0
  2975     03EA  00C7               	movwf	map@inputmin
  2976     03EB  00C8               	movwf	map@inputmin+1
  2977     03EC  30FF               	movlw	255
  2978     03ED  00C9               	movwf	map@inputmax
  2979     03EE  3000               	movlw	0
  2980     03EF  00CA               	movwf	map@inputmax+1
  2981     03F0  3001               	movlw	1
  2982     03F1  00CB               	movwf	map@outmin
  2983     03F2  3000               	movlw	0
  2984     03F3  00CC               	movwf	map@outmin+1
  2985     03F4  3014               	movlw	20
  2986     03F5  00CD               	movwf	map@outmax
  2987     03F6  3000               	movlw	0
  2988     03F7  00CE               	movwf	map@outmax+1
  2989     03F8  081E               	movf	30,w	;volatile
  2990     03F9  120A  118A  2677  120A  118A  	fcall	_map
  2991     03FE  1283               	bcf	3,5	;RP0=0, select bank0
  2992     03FF  1303               	bcf	3,6	;RP1=0, select bank0
  2993     0400  0848               	movf	?_map+1,w
  2994     0401  00D5               	movwf	_pot1+1
  2995     0402  0847               	movf	?_map,w
  2996     0403  00D4               	movwf	_pot1
  2997     0404                     i1l1821:
  2998                           
  2999                           ;newmain.c: 89:             ADCON0bits.CHS = 0b0000;}
  3000     0404  30C3               	movlw	-61
  3001     0405  059F               	andwf	31,f	;volatile
  3002     0406  2C07               	goto	i1l1823
  3003     0407                     i1l148:
  3004     0407                     i1l1823:
  3005                           
  3006                           ;newmain.c: 90:             PIR1bits.ADIF = 0;}
  3007     0407  130C               	bcf	12,6	;volatile
  3008     0408                     i1l1825:
  3009                           
  3010                           ;newmain.c: 92:     if (INTCONbits.T0IF == 1){
  3011     0408  1D0B               	btfss	11,2	;volatile
  3012     0409  2C0B               	goto	u126_21
  3013     040A  2C0C               	goto	u126_20
  3014     040B                     u126_21:
  3015     040B  2C29               	goto	i1l1843
  3016     040C                     u126_20:
  3017     040C                     i1l1827:
  3018                           
  3019                           ;newmain.c: 93:         INTCONbits.T0IF = 0;
  3020     040C  110B               	bcf	11,2	;volatile
  3021     040D                     i1l1829:
  3022                           
  3023                           ;newmain.c: 94:         TMR0 = 246;
  3024     040D  30F6               	movlw	246
  3025     040E  0081               	movwf	1	;volatile
  3026     040F                     i1l1831:
  3027                           
  3028                           ;newmain.c: 95:         PORTCbits.RC0 = 1;
  3029     040F  1407               	bsf	7,0	;volatile
  3030     0410                     i1l1833:
  3031                           
  3032                           ;newmain.c: 96:         delay(pot);
  3033     0410  0857               	movf	_pot+1,w
  3034     0411  00F1               	movwf	delay@micro+1
  3035     0412  0856               	movf	_pot,w
  3036     0413  00F0               	movwf	delay@micro
  3037     0414  120A  118A  27B9  120A  118A  	fcall	_delay
  3038     0419                     i1l1835:
  3039                           
  3040                           ;newmain.c: 97:         PORTCbits.RC0 = 0;
  3041     0419  1283               	bcf	3,5	;RP0=0, select bank0
  3042     041A  1303               	bcf	3,6	;RP1=0, select bank0
  3043     041B  1007               	bcf	7,0	;volatile
  3044     041C                     i1l1837:
  3045                           
  3046                           ;newmain.c: 98:         PORTCbits.RC3 = 1;
  3047     041C  1587               	bsf	7,3	;volatile
  3048     041D                     i1l1839:
  3049                           
  3050                           ;newmain.c: 99:         delay(pot1);
  3051     041D  0855               	movf	_pot1+1,w
  3052     041E  00F1               	movwf	delay@micro+1
  3053     041F  0854               	movf	_pot1,w
  3054     0420  00F0               	movwf	delay@micro
  3055     0421  120A  118A  27B9  120A  118A  	fcall	_delay
  3056     0426                     i1l1841:
  3057                           
  3058                           ;newmain.c: 100:         PORTCbits.RC3 = 0;
  3059     0426  1283               	bcf	3,5	;RP0=0, select bank0
  3060     0427  1303               	bcf	3,6	;RP1=0, select bank0
  3061     0428  1187               	bcf	7,3	;volatile
  3062     0429                     i1l1843:
  3063                           
  3064                           ;newmain.c: 103:     if (PIR1bits.RCIF == 1){
  3065     0429  1E8C               	btfss	12,5	;volatile
  3066     042A  2C2C               	goto	u127_21
  3067     042B  2C2D               	goto	u127_20
  3068     042C                     u127_21:
  3069     042C  2D43               	goto	i1l178
  3070     042D                     u127_20:
  3071     042D                     i1l1845:
  3072                           
  3073                           ;newmain.c: 104:         if (RCREG == 'z'){
  3074     042D  307A               	movlw	122
  3075     042E  061A               	xorwf	26,w	;volatile
  3076     042F  1D03               	btfss	3,2
  3077     0430  2C32               	goto	u128_21
  3078     0431  2C33               	goto	u128_20
  3079     0432                     u128_21:
  3080     0432  2C38               	goto	i1l1851
  3081     0433                     u128_20:
  3082     0433                     i1l1847:
  3083                           
  3084                           ;newmain.c: 105:             selector = 0;
  3085     0433  01DC               	clrf	_selector
  3086     0434  01DD               	clrf	_selector+1
  3087                           
  3088                           ;newmain.c: 106:             loop = 0;
  3089     0435  01D8               	clrf	_loop
  3090     0436  01D9               	clrf	_loop+1
  3091     0437                     i1l1849:
  3092                           
  3093                           ;newmain.c: 107:             PIR1bits.RCIF = 0;
  3094     0437  128C               	bcf	12,5	;volatile
  3095     0438                     i1l1851:
  3096                           
  3097                           ;newmain.c: 109:         if (RCREG == 'x'){
  3098     0438  3078               	movlw	120
  3099     0439  061A               	xorwf	26,w	;volatile
  3100     043A  1D03               	btfss	3,2
  3101     043B  2C3D               	goto	u129_21
  3102     043C  2C3E               	goto	u129_20
  3103     043D                     u129_21:
  3104     043D  2C45               	goto	i1l1859
  3105     043E                     u129_20:
  3106     043E                     i1l1853:
  3107                           
  3108                           ;newmain.c: 110:             selector = 1;
  3109     043E  3001               	movlw	1
  3110     043F  00DC               	movwf	_selector
  3111     0440  3000               	movlw	0
  3112     0441  00DD               	movwf	_selector+1
  3113     0442                     i1l1855:
  3114                           
  3115                           ;newmain.c: 111:             loop = 0;
  3116     0442  01D8               	clrf	_loop
  3117     0443  01D9               	clrf	_loop+1
  3118     0444                     i1l1857:
  3119                           
  3120                           ;newmain.c: 112:             PIR1bits.RCIF = 0;
  3121     0444  128C               	bcf	12,5	;volatile
  3122     0445                     i1l1859:
  3123                           
  3124                           ;newmain.c: 114:         if (RCREG == 'c'){
  3125     0445  3063               	movlw	99
  3126     0446  061A               	xorwf	26,w	;volatile
  3127     0447  1D03               	btfss	3,2
  3128     0448  2C4A               	goto	u130_21
  3129     0449  2C4B               	goto	u130_20
  3130     044A                     u130_21:
  3131     044A  2C52               	goto	i1l1867
  3132     044B                     u130_20:
  3133     044B                     i1l1861:
  3134                           
  3135                           ;newmain.c: 115:             selector = 2;
  3136     044B  3002               	movlw	2
  3137     044C  00DC               	movwf	_selector
  3138     044D  3000               	movlw	0
  3139     044E  00DD               	movwf	_selector+1
  3140     044F                     i1l1863:
  3141                           
  3142                           ;newmain.c: 116:             loop = 0;
  3143     044F  01D8               	clrf	_loop
  3144     0450  01D9               	clrf	_loop+1
  3145     0451                     i1l1865:
  3146                           
  3147                           ;newmain.c: 117:             PIR1bits.RCIF = 0;
  3148     0451  128C               	bcf	12,5	;volatile
  3149     0452                     i1l1867:
  3150                           
  3151                           ;newmain.c: 119:         if (RCREG == 'v'){
  3152     0452  3076               	movlw	118
  3153     0453  061A               	xorwf	26,w	;volatile
  3154     0454  1D03               	btfss	3,2
  3155     0455  2C57               	goto	u131_21
  3156     0456  2C58               	goto	u131_20
  3157     0457                     u131_21:
  3158     0457  2C5F               	goto	i1l1875
  3159     0458                     u131_20:
  3160     0458                     i1l1869:
  3161                           
  3162                           ;newmain.c: 120:             selector = 3;
  3163     0458  3003               	movlw	3
  3164     0459  00DC               	movwf	_selector
  3165     045A  3000               	movlw	0
  3166     045B  00DD               	movwf	_selector+1
  3167     045C                     i1l1871:
  3168                           
  3169                           ;newmain.c: 121:             loop = 0;
  3170     045C  01D8               	clrf	_loop
  3171     045D  01D9               	clrf	_loop+1
  3172     045E                     i1l1873:
  3173                           
  3174                           ;newmain.c: 122:             PIR1bits.RCIF = 0;
  3175     045E  128C               	bcf	12,5	;volatile
  3176     045F                     i1l1875:
  3177                           
  3178                           ;newmain.c: 124:         if (RCREG == '1'){
  3179     045F  3031               	movlw	49
  3180     0460  061A               	xorwf	26,w	;volatile
  3181     0461  1D03               	btfss	3,2
  3182     0462  2C64               	goto	u132_21
  3183     0463  2C65               	goto	u132_20
  3184     0464                     u132_21:
  3185     0464  2C7E               	goto	i1l1891
  3186     0465                     u132_20:
  3187     0465                     i1l1877:
  3188                           
  3189                           ;newmain.c: 125:             if (x == 255){
  3190     0465  0A61               	incf	_x,w
  3191     0466  1D03               	btfss	3,2
  3192     0467  2C69               	goto	u133_21
  3193     0468  2C6A               	goto	u133_20
  3194     0469                     u133_21:
  3195     0469  2C6B               	goto	i1l1881
  3196     046A                     u133_20:
  3197     046A                     i1l1879:
  3198                           
  3199                           ;newmain.c: 126:                 x = 0;}
  3200     046A  01E1               	clrf	_x
  3201     046B                     i1l1881:
  3202                           
  3203                           ;newmain.c: 127:             if (x == 17){
  3204     046B  3011               	movlw	17
  3205     046C  0661               	xorwf	_x,w
  3206     046D  1D03               	btfss	3,2
  3207     046E  2C70               	goto	u134_21
  3208     046F  2C71               	goto	u134_20
  3209     0470                     u134_21:
  3210     0470  2C73               	goto	i1l1885
  3211     0471                     u134_20:
  3212     0471                     i1l1883:
  3213                           
  3214                           ;newmain.c: 128:                 x = 16;}
  3215     0471  3010               	movlw	16
  3216     0472  00E1               	movwf	_x
  3217     0473                     i1l1885:
  3218                           
  3219                           ;newmain.c: 129:             CCPR1L = servo[x];
  3220     0473  0861               	movf	_x,w
  3221     0474  3E20               	addlw	(low (_servo| 0))& (0+255)
  3222     0475  0084               	movwf	4
  3223     0476  1383               	bcf	3,7	;select IRP bank0
  3224     0477  0800               	movf	0,w
  3225     0478  0095               	movwf	21	;volatile
  3226     0479                     i1l1887:
  3227                           
  3228                           ;newmain.c: 130:             x++;
  3229     0479  3001               	movlw	1
  3230     047A  00CF               	movwf	??_isr
  3231     047B  084F               	movf	??_isr,w
  3232     047C  07E1               	addwf	_x,f
  3233     047D                     i1l1889:
  3234                           
  3235                           ;newmain.c: 131:             PIR1bits.RCIF = 0;
  3236     047D  128C               	bcf	12,5	;volatile
  3237     047E                     i1l1891:
  3238                           
  3239                           ;newmain.c: 133:         if (RCREG == '2'){
  3240     047E  3032               	movlw	50
  3241     047F  061A               	xorwf	26,w	;volatile
  3242     0480  1D03               	btfss	3,2
  3243     0481  2C83               	goto	u135_21
  3244     0482  2C84               	goto	u135_20
  3245     0483                     u135_21:
  3246     0483  2C93               	goto	i1l1903
  3247     0484                     u135_20:
  3248     0484                     i1l1893:
  3249                           
  3250                           ;newmain.c: 134:             if (x == 255){
  3251     0484  0A61               	incf	_x,w
  3252     0485  1D03               	btfss	3,2
  3253     0486  2C88               	goto	u136_21
  3254     0487  2C89               	goto	u136_20
  3255     0488                     u136_21:
  3256     0488  2C8A               	goto	i1l1897
  3257     0489                     u136_20:
  3258     0489                     i1l1895:
  3259                           
  3260                           ;newmain.c: 135:                 x = 0;}
  3261     0489  01E1               	clrf	_x
  3262     048A                     i1l1897:
  3263                           
  3264                           ;newmain.c: 136:             CCPR1L = servo[x];
  3265     048A  0861               	movf	_x,w
  3266     048B  3E20               	addlw	(low (_servo| 0))& (0+255)
  3267     048C  0084               	movwf	4
  3268     048D  1383               	bcf	3,7	;select IRP bank0
  3269     048E  0800               	movf	0,w
  3270     048F  0095               	movwf	21	;volatile
  3271     0490                     i1l1899:
  3272                           
  3273                           ;newmain.c: 137:             x--;
  3274     0490  3001               	movlw	1
  3275     0491  02E1               	subwf	_x,f
  3276     0492                     i1l1901:
  3277                           
  3278                           ;newmain.c: 138:             PIR1bits.RCIF = 0;
  3279     0492  128C               	bcf	12,5	;volatile
  3280     0493                     i1l1903:
  3281                           
  3282                           ;newmain.c: 140:         if (RCREG == '3'){
  3283     0493  3033               	movlw	51
  3284     0494  061A               	xorwf	26,w	;volatile
  3285     0495  1D03               	btfss	3,2
  3286     0496  2C98               	goto	u137_21
  3287     0497  2C99               	goto	u137_20
  3288     0498                     u137_21:
  3289     0498  2CB2               	goto	i1l1919
  3290     0499                     u137_20:
  3291     0499                     i1l1905:
  3292                           
  3293                           ;newmain.c: 141:             if (y == 255){
  3294     0499  0A60               	incf	_y,w
  3295     049A  1D03               	btfss	3,2
  3296     049B  2C9D               	goto	u138_21
  3297     049C  2C9E               	goto	u138_20
  3298     049D                     u138_21:
  3299     049D  2C9F               	goto	i1l1909
  3300     049E                     u138_20:
  3301     049E                     i1l1907:
  3302                           
  3303                           ;newmain.c: 142:                 y = 0;}
  3304     049E  01E0               	clrf	_y
  3305     049F                     i1l1909:
  3306                           
  3307                           ;newmain.c: 143:             if (y == 17){
  3308     049F  3011               	movlw	17
  3309     04A0  0660               	xorwf	_y,w
  3310     04A1  1D03               	btfss	3,2
  3311     04A2  2CA4               	goto	u139_21
  3312     04A3  2CA5               	goto	u139_20
  3313     04A4                     u139_21:
  3314     04A4  2CA7               	goto	i1l1913
  3315     04A5                     u139_20:
  3316     04A5                     i1l1911:
  3317                           
  3318                           ;newmain.c: 144:                 y = 16;}
  3319     04A5  3010               	movlw	16
  3320     04A6  00E0               	movwf	_y
  3321     04A7                     i1l1913:
  3322                           
  3323                           ;newmain.c: 145:             CCPR2L = servo[y];
  3324     04A7  0860               	movf	_y,w
  3325     04A8  3E20               	addlw	(low (_servo| 0))& (0+255)
  3326     04A9  0084               	movwf	4
  3327     04AA  1383               	bcf	3,7	;select IRP bank0
  3328     04AB  0800               	movf	0,w
  3329     04AC  009B               	movwf	27	;volatile
  3330     04AD                     i1l1915:
  3331                           
  3332                           ;newmain.c: 146:             y++;
  3333     04AD  3001               	movlw	1
  3334     04AE  00CF               	movwf	??_isr
  3335     04AF  084F               	movf	??_isr,w
  3336     04B0  07E0               	addwf	_y,f
  3337     04B1                     i1l1917:
  3338                           
  3339                           ;newmain.c: 147:             PIR1bits.RCIF = 0;
  3340     04B1  128C               	bcf	12,5	;volatile
  3341     04B2                     i1l1919:
  3342                           
  3343                           ;newmain.c: 149:         if (RCREG == '4'){
  3344     04B2  3034               	movlw	52
  3345     04B3  061A               	xorwf	26,w	;volatile
  3346     04B4  1D03               	btfss	3,2
  3347     04B5  2CB7               	goto	u140_21
  3348     04B6  2CB8               	goto	u140_20
  3349     04B7                     u140_21:
  3350     04B7  2CC7               	goto	i1l1931
  3351     04B8                     u140_20:
  3352     04B8                     i1l1921:
  3353                           
  3354                           ;newmain.c: 150:             if (y == 255){
  3355     04B8  0A60               	incf	_y,w
  3356     04B9  1D03               	btfss	3,2
  3357     04BA  2CBC               	goto	u141_21
  3358     04BB  2CBD               	goto	u141_20
  3359     04BC                     u141_21:
  3360     04BC  2CBE               	goto	i1l1925
  3361     04BD                     u141_20:
  3362     04BD                     i1l1923:
  3363                           
  3364                           ;newmain.c: 151:                 y = 0;}
  3365     04BD  01E0               	clrf	_y
  3366     04BE                     i1l1925:
  3367                           
  3368                           ;newmain.c: 152:             CCPR2L = servo[y];
  3369     04BE  0860               	movf	_y,w
  3370     04BF  3E20               	addlw	(low (_servo| 0))& (0+255)
  3371     04C0  0084               	movwf	4
  3372     04C1  1383               	bcf	3,7	;select IRP bank0
  3373     04C2  0800               	movf	0,w
  3374     04C3  009B               	movwf	27	;volatile
  3375     04C4                     i1l1927:
  3376                           
  3377                           ;newmain.c: 153:             y--;
  3378     04C4  3001               	movlw	1
  3379     04C5  02E0               	subwf	_y,f
  3380     04C6                     i1l1929:
  3381                           
  3382                           ;newmain.c: 154:             PIR1bits.RCIF = 0;
  3383     04C6  128C               	bcf	12,5	;volatile
  3384     04C7                     i1l1931:
  3385                           
  3386                           ;newmain.c: 157:         if (RCREG == '5'){
  3387     04C7  3035               	movlw	53
  3388     04C8  061A               	xorwf	26,w	;volatile
  3389     04C9  1D03               	btfss	3,2
  3390     04CA  2CCC               	goto	u142_21
  3391     04CB  2CCD               	goto	u142_20
  3392     04CC                     u142_21:
  3393     04CC  2CEB               	goto	i1l1947
  3394     04CD                     u142_20:
  3395     04CD                     i1l1933:
  3396                           
  3397                           ;newmain.c: 158:             if (x1 == 255){
  3398     04CD  0A5F               	incf	_x1,w
  3399     04CE  1D03               	btfss	3,2
  3400     04CF  2CD1               	goto	u143_21
  3401     04D0  2CD2               	goto	u143_20
  3402     04D1                     u143_21:
  3403     04D1  2CD3               	goto	i1l1937
  3404     04D2                     u143_20:
  3405     04D2                     i1l1935:
  3406                           
  3407                           ;newmain.c: 159:                 x1 = 0;}
  3408     04D2  01DF               	clrf	_x1
  3409     04D3                     i1l1937:
  3410                           
  3411                           ;newmain.c: 160:             if (x1 == 16){
  3412     04D3  3010               	movlw	16
  3413     04D4  065F               	xorwf	_x1,w
  3414     04D5  1D03               	btfss	3,2
  3415     04D6  2CD8               	goto	u144_21
  3416     04D7  2CD9               	goto	u144_20
  3417     04D8                     u144_21:
  3418     04D8  2CDB               	goto	i1l1941
  3419     04D9                     u144_20:
  3420     04D9                     i1l1939:
  3421                           
  3422                           ;newmain.c: 161:                 x1 = 15;}
  3423     04D9  300F               	movlw	15
  3424     04DA  00DF               	movwf	_x1
  3425     04DB                     i1l1941:
  3426                           
  3427                           ;newmain.c: 162:             pot = servo2[x1];
  3428     04DB  085F               	movf	_x1,w
  3429     04DC  3E32               	addlw	(low (_servo2| 0))& (0+255)
  3430     04DD  0084               	movwf	4
  3431     04DE  1383               	bcf	3,7	;select IRP bank0
  3432     04DF  0800               	movf	0,w
  3433     04E0  00CF               	movwf	??_isr
  3434     04E1  01D0               	clrf	??_isr+1
  3435     04E2  084F               	movf	??_isr,w
  3436     04E3  00D6               	movwf	_pot
  3437     04E4  0850               	movf	??_isr+1,w
  3438     04E5  00D7               	movwf	_pot+1
  3439     04E6                     i1l1943:
  3440                           
  3441                           ;newmain.c: 163:             x1++;
  3442     04E6  3001               	movlw	1
  3443     04E7  00CF               	movwf	??_isr
  3444     04E8  084F               	movf	??_isr,w
  3445     04E9  07DF               	addwf	_x1,f
  3446     04EA                     i1l1945:
  3447                           
  3448                           ;newmain.c: 164:             PIR1bits.RCIF = 0;
  3449     04EA  128C               	bcf	12,5	;volatile
  3450     04EB                     i1l1947:
  3451                           
  3452                           ;newmain.c: 166:         if (RCREG == '6'){
  3453     04EB  3036               	movlw	54
  3454     04EC  061A               	xorwf	26,w	;volatile
  3455     04ED  1D03               	btfss	3,2
  3456     04EE  2CF0               	goto	u145_21
  3457     04EF  2CF1               	goto	u145_20
  3458     04F0                     u145_21:
  3459     04F0  2D05               	goto	i1l1959
  3460     04F1                     u145_20:
  3461     04F1                     i1l1949:
  3462                           
  3463                           ;newmain.c: 167:             if (x1 == 255){
  3464     04F1  0A5F               	incf	_x1,w
  3465     04F2  1D03               	btfss	3,2
  3466     04F3  2CF5               	goto	u146_21
  3467     04F4  2CF6               	goto	u146_20
  3468     04F5                     u146_21:
  3469     04F5  2CF7               	goto	i1l1953
  3470     04F6                     u146_20:
  3471     04F6                     i1l1951:
  3472                           
  3473                           ;newmain.c: 168:                 x1 = 0;}
  3474     04F6  01DF               	clrf	_x1
  3475     04F7                     i1l1953:
  3476                           
  3477                           ;newmain.c: 169:             pot = servo2[x1];
  3478     04F7  085F               	movf	_x1,w
  3479     04F8  3E32               	addlw	(low (_servo2| 0))& (0+255)
  3480     04F9  0084               	movwf	4
  3481     04FA  1383               	bcf	3,7	;select IRP bank0
  3482     04FB  0800               	movf	0,w
  3483     04FC  00CF               	movwf	??_isr
  3484     04FD  01D0               	clrf	??_isr+1
  3485     04FE  084F               	movf	??_isr,w
  3486     04FF  00D6               	movwf	_pot
  3487     0500  0850               	movf	??_isr+1,w
  3488     0501  00D7               	movwf	_pot+1
  3489     0502                     i1l1955:
  3490                           
  3491                           ;newmain.c: 170:             x1--;
  3492     0502  3001               	movlw	1
  3493     0503  02DF               	subwf	_x1,f
  3494     0504                     i1l1957:
  3495                           
  3496                           ;newmain.c: 171:             PIR1bits.RCIF = 0;
  3497     0504  128C               	bcf	12,5	;volatile
  3498     0505                     i1l1959:
  3499                           
  3500                           ;newmain.c: 174:         if (RCREG == '7'){
  3501     0505  3037               	movlw	55
  3502     0506  061A               	xorwf	26,w	;volatile
  3503     0507  1D03               	btfss	3,2
  3504     0508  2D0A               	goto	u147_21
  3505     0509  2D0B               	goto	u147_20
  3506     050A                     u147_21:
  3507     050A  2D29               	goto	i1l1975
  3508     050B                     u147_20:
  3509     050B                     i1l1961:
  3510                           
  3511                           ;newmain.c: 175:             if (y1 == 255){
  3512     050B  0A5E               	incf	_y1,w
  3513     050C  1D03               	btfss	3,2
  3514     050D  2D0F               	goto	u148_21
  3515     050E  2D10               	goto	u148_20
  3516     050F                     u148_21:
  3517     050F  2D11               	goto	i1l1965
  3518     0510                     u148_20:
  3519     0510                     i1l1963:
  3520                           
  3521                           ;newmain.c: 176:                 y1 = 0;}
  3522     0510  01DE               	clrf	_y1
  3523     0511                     i1l1965:
  3524                           
  3525                           ;newmain.c: 177:             if (y1 == 16){
  3526     0511  3010               	movlw	16
  3527     0512  065E               	xorwf	_y1,w
  3528     0513  1D03               	btfss	3,2
  3529     0514  2D16               	goto	u149_21
  3530     0515  2D17               	goto	u149_20
  3531     0516                     u149_21:
  3532     0516  2D19               	goto	i1l1969
  3533     0517                     u149_20:
  3534     0517                     i1l1967:
  3535                           
  3536                           ;newmain.c: 178:                 y1 = 15;}
  3537     0517  300F               	movlw	15
  3538     0518  00DE               	movwf	_y1
  3539     0519                     i1l1969:
  3540                           
  3541                           ;newmain.c: 179:             pot1 = servo2[y1];
  3542     0519  085E               	movf	_y1,w
  3543     051A  3E32               	addlw	(low (_servo2| 0))& (0+255)
  3544     051B  0084               	movwf	4
  3545     051C  1383               	bcf	3,7	;select IRP bank0
  3546     051D  0800               	movf	0,w
  3547     051E  00CF               	movwf	??_isr
  3548     051F  01D0               	clrf	??_isr+1
  3549     0520  084F               	movf	??_isr,w
  3550     0521  00D4               	movwf	_pot1
  3551     0522  0850               	movf	??_isr+1,w
  3552     0523  00D5               	movwf	_pot1+1
  3553     0524                     i1l1971:
  3554                           
  3555                           ;newmain.c: 180:             y1++;
  3556     0524  3001               	movlw	1
  3557     0525  00CF               	movwf	??_isr
  3558     0526  084F               	movf	??_isr,w
  3559     0527  07DE               	addwf	_y1,f
  3560     0528                     i1l1973:
  3561                           
  3562                           ;newmain.c: 181:             PIR1bits.RCIF = 0;
  3563     0528  128C               	bcf	12,5	;volatile
  3564     0529                     i1l1975:
  3565                           
  3566                           ;newmain.c: 183:         if (RCREG == '8'){
  3567     0529  3038               	movlw	56
  3568     052A  061A               	xorwf	26,w	;volatile
  3569     052B  1D03               	btfss	3,2
  3570     052C  2D2E               	goto	u150_21
  3571     052D  2D2F               	goto	u150_20
  3572     052E                     u150_21:
  3573     052E  2D43               	goto	i1l178
  3574     052F                     u150_20:
  3575     052F                     i1l1977:
  3576                           
  3577                           ;newmain.c: 184:             if (y1 == 255){
  3578     052F  0A5E               	incf	_y1,w
  3579     0530  1D03               	btfss	3,2
  3580     0531  2D33               	goto	u151_21
  3581     0532  2D34               	goto	u151_20
  3582     0533                     u151_21:
  3583     0533  2D35               	goto	i1l1981
  3584     0534                     u151_20:
  3585     0534                     i1l1979:
  3586                           
  3587                           ;newmain.c: 185:                 y1 = 0;}
  3588     0534  01DE               	clrf	_y1
  3589     0535                     i1l1981:
  3590                           
  3591                           ;newmain.c: 186:             pot1 = servo2[y1];
  3592     0535  085E               	movf	_y1,w
  3593     0536  3E32               	addlw	(low (_servo2| 0))& (0+255)
  3594     0537  0084               	movwf	4
  3595     0538  1383               	bcf	3,7	;select IRP bank0
  3596     0539  0800               	movf	0,w
  3597     053A  00CF               	movwf	??_isr
  3598     053B  01D0               	clrf	??_isr+1
  3599     053C  084F               	movf	??_isr,w
  3600     053D  00D4               	movwf	_pot1
  3601     053E  0850               	movf	??_isr+1,w
  3602     053F  00D5               	movwf	_pot1+1
  3603     0540                     i1l1983:
  3604                           
  3605                           ;newmain.c: 187:             y1--;
  3606     0540  3001               	movlw	1
  3607     0541  02DE               	subwf	_y1,f
  3608     0542                     i1l1985:
  3609                           
  3610                           ;newmain.c: 188:             PIR1bits.RCIF = 0;
  3611     0542  128C               	bcf	12,5	;volatile
  3612     0543                     i1l178:
  3613     0543  0853               	movf	??_isr+4,w
  3614     0544  008A               	movwf	10
  3615     0545  0852               	movf	??_isr+3,w
  3616     0546  0084               	movwf	4
  3617     0547  0E51               	swapf	??_isr+2,w
  3618     0548  0083               	movwf	3
  3619     0549  0EFE               	swapf	btemp,f
  3620     054A  0E7E               	swapf	btemp,w
  3621     054B  0009               	retfie
  3622     054C                     __end_of_isr:
  3623                           
  3624                           	psect	intentry
  3625     0004                     __pintentry:	
  3626                           ;incstack = 0
  3627                           ; Regs used in _isr: [wreg-fsr0h+status,2+status,0+pclath+cstack]
  3628                           
  3629     0004                     interrupt_function:
  3630     007E                     saved_w	set	btemp
  3631     0004  00FE               	movwf	btemp
  3632     0005  0E03               	swapf	3,w
  3633     0006  1283               	bcf	3,5	;RP0=0, select bank0
  3634     0007  1303               	bcf	3,6	;RP1=0, select bank0
  3635     0008  00D1               	movwf	??_isr+2
  3636     0009  0804               	movf	4,w
  3637     000A  00D2               	movwf	??_isr+3
  3638     000B  080A               	movf	10,w
  3639     000C  00D3               	movwf	??_isr+4
  3640     000D  120A  118A  2B3B   	ljmp	_isr
  3641                           
  3642                           	psect	text9
  3643     0677                     __ptext9:	
  3644 ;; *************** function _map *****************
  3645 ;; Defined at:
  3646 ;;		line 56 in file "newmain.c"
  3647 ;; Parameters:    Size  Location     Type
  3648 ;;  value           1    wreg     unsigned char 
  3649 ;;  inputmin        2    4[BANK0 ] int 
  3650 ;;  inputmax        2    6[BANK0 ] int 
  3651 ;;  outmin          2    8[BANK0 ] int 
  3652 ;;  outmax          2   10[BANK0 ] int 
  3653 ;; Auto vars:     Size  Location     Type
  3654 ;;  value           1   12[COMMON] unsigned char 
  3655 ;; Return value:  Size  Location     Type
  3656 ;;                  2    4[BANK0 ] unsigned int 
  3657 ;; Registers used:
  3658 ;;		wreg, status,2, status,0, pclath, cstack
  3659 ;; Tracked objects:
  3660 ;;		On entry : 0/0
  3661 ;;		On exit  : 0/0
  3662 ;;		Unchanged: 0/0
  3663 ;; Data sizes:     COMMON   BANK0   BANK1   BANK3   BANK2
  3664 ;;      Params:         0       8       0       0       0
  3665 ;;      Locals:         1       0       0       0       0
  3666 ;;      Temps:          1       0       0       0       0
  3667 ;;      Totals:         2       8       0       0       0
  3668 ;;Total ram usage:       10 bytes
  3669 ;; Hardware stack levels used: 1
  3670 ;; Hardware stack levels required when called: 1
  3671 ;; This function calls:
  3672 ;;		___awdiv
  3673 ;;		___wmul
  3674 ;; This function is called by:
  3675 ;;		_isr
  3676 ;; This function uses a non-reentrant model
  3677 ;;
  3678                           
  3679     0677                     _map:	
  3680                           ;psect for function _map
  3681                           
  3682                           
  3683                           ;incstack = 0
  3684                           ; Regs used in _map: [wreg+status,2+status,0+pclath+cstack]
  3685                           ;map@value stored from wreg
  3686     0677  00FC               	movwf	map@value
  3687     0678                     i1l1607:
  3688                           
  3689                           ;newmain.c: 57:     return ((value - inputmin)*(outmax-outmin)) / (inputmax-inputmin)+ou
      +                          tmin;}
  3690     0678  1283               	bcf	3,5	;RP0=0, select bank0
  3691     0679  1303               	bcf	3,6	;RP1=0, select bank0
  3692     067A  0847               	movf	map@inputmin,w
  3693     067B  0249               	subwf	map@inputmax,w
  3694     067C  00F6               	movwf	___awdiv@divisor
  3695     067D  0848               	movf	map@inputmin+1,w
  3696     067E  1C03               	skipc
  3697     067F  0A48               	incf	map@inputmin+1,w
  3698     0680  024A               	subwf	map@inputmax+1,w
  3699     0681  00F7               	movwf	___awdiv@divisor+1
  3700     0682  087C               	movf	map@value,w
  3701     0683  00FB               	movwf	??_map
  3702     0684  0847               	movf	map@inputmin,w
  3703     0685  027B               	subwf	??_map,w
  3704     0686  00F0               	movwf	___wmul@multiplier
  3705     0687  0948               	comf	map@inputmin+1,w
  3706     0688  1803               	skipnc
  3707     0689  3E01               	addlw	1
  3708     068A  00F1               	movwf	___wmul@multiplier+1
  3709     068B  084B               	movf	map@outmin,w
  3710     068C  024D               	subwf	map@outmax,w
  3711     068D  00F2               	movwf	___wmul@multiplicand
  3712     068E  084C               	movf	map@outmin+1,w
  3713     068F  1C03               	skipc
  3714     0690  0A4C               	incf	map@outmin+1,w
  3715     0691  024E               	subwf	map@outmax+1,w
  3716     0692  00F3               	movwf	___wmul@multiplicand+1
  3717     0693  120A  118A  2720  120A  118A  	fcall	___wmul
  3718     0698  0871               	movf	?___wmul+1,w
  3719     0699  00F9               	movwf	___awdiv@dividend+1
  3720     069A  0870               	movf	?___wmul,w
  3721     069B  00F8               	movwf	___awdiv@dividend
  3722     069C  120A  118A  25CB  120A  118A  	fcall	___awdiv
  3723     06A1  1283               	bcf	3,5	;RP0=0, select bank0
  3724     06A2  1303               	bcf	3,6	;RP1=0, select bank0
  3725     06A3  084B               	movf	map@outmin,w
  3726     06A4  0776               	addwf	?___awdiv,w
  3727     06A5  00C7               	movwf	?_map
  3728     06A6  084C               	movf	map@outmin+1,w
  3729     06A7  1803               	skipnc
  3730     06A8  0A4C               	incf	map@outmin+1,w
  3731     06A9  0777               	addwf	?___awdiv+1,w
  3732     06AA  00C8               	movwf	?_map+1
  3733     06AB                     i1l135:
  3734     06AB  0008               	return
  3735     06AC                     __end_of_map:
  3736                           
  3737                           	psect	text10
  3738     0720                     __ptext10:	
  3739 ;; *************** function ___wmul *****************
  3740 ;; Defined at:
  3741 ;;		line 15 in file "C:\Program Files\Microchip\xc8\v2.40\pic\sources\c90\common\Umul16.c"
  3742 ;; Parameters:    Size  Location     Type
  3743 ;;  multiplier      2    0[COMMON] unsigned int 
  3744 ;;  multiplicand    2    2[COMMON] unsigned int 
  3745 ;; Auto vars:     Size  Location     Type
  3746 ;;  product         2    4[COMMON] unsigned int 
  3747 ;; Return value:  Size  Location     Type
  3748 ;;                  2    0[COMMON] unsigned int 
  3749 ;; Registers used:
  3750 ;;		wreg, status,2, status,0
  3751 ;; Tracked objects:
  3752 ;;		On entry : 0/0
  3753 ;;		On exit  : 0/0
  3754 ;;		Unchanged: 0/0
  3755 ;; Data sizes:     COMMON   BANK0   BANK1   BANK3   BANK2
  3756 ;;      Params:         4       0       0       0       0
  3757 ;;      Locals:         2       0       0       0       0
  3758 ;;      Temps:          0       0       0       0       0
  3759 ;;      Totals:         6       0       0       0       0
  3760 ;;Total ram usage:        6 bytes
  3761 ;; Hardware stack levels used: 1
  3762 ;; This function calls:
  3763 ;;		Nothing
  3764 ;; This function is called by:
  3765 ;;		_map
  3766 ;; This function uses a non-reentrant model
  3767 ;;
  3768                           
  3769     0720                     ___wmul:	
  3770                           ;psect for function ___wmul
  3771                           
  3772     0720                     i1l1549:	
  3773                           ;incstack = 0
  3774                           ; Regs used in ___wmul: [wreg+status,2+status,0]
  3775                           
  3776     0720  01F4               	clrf	___wmul@product
  3777     0721  01F5               	clrf	___wmul@product+1
  3778     0722                     i1l1551:
  3779     0722  1C70               	btfss	___wmul@multiplier,0
  3780     0723  2F25               	goto	u93_21
  3781     0724  2F26               	goto	u93_20
  3782     0725                     u93_21:
  3783     0725  2F2C               	goto	i1l353
  3784     0726                     u93_20:
  3785     0726                     i1l1553:
  3786     0726  0872               	movf	___wmul@multiplicand,w
  3787     0727  07F4               	addwf	___wmul@product,f
  3788     0728  1803               	skipnc
  3789     0729  0AF5               	incf	___wmul@product+1,f
  3790     072A  0873               	movf	___wmul@multiplicand+1,w
  3791     072B  07F5               	addwf	___wmul@product+1,f
  3792     072C                     i1l353:
  3793     072C  3001               	movlw	1
  3794     072D                     u94_25:
  3795     072D  1003               	clrc
  3796     072E  0DF2               	rlf	___wmul@multiplicand,f
  3797     072F  0DF3               	rlf	___wmul@multiplicand+1,f
  3798     0730  3EFF               	addlw	-1
  3799     0731  1D03               	skipz
  3800     0732  2F2D               	goto	u94_25
  3801     0733                     i1l1555:
  3802     0733  3001               	movlw	1
  3803     0734                     u95_25:
  3804     0734  1003               	clrc
  3805     0735  0CF1               	rrf	___wmul@multiplier+1,f
  3806     0736  0CF0               	rrf	___wmul@multiplier,f
  3807     0737  3EFF               	addlw	-1
  3808     0738  1D03               	skipz
  3809     0739  2F34               	goto	u95_25
  3810     073A                     i1l1557:
  3811     073A  0870               	movf	___wmul@multiplier,w
  3812     073B  0471               	iorwf	___wmul@multiplier+1,w
  3813     073C  1D03               	btfss	3,2
  3814     073D  2F3F               	goto	u96_21
  3815     073E  2F40               	goto	u96_20
  3816     073F                     u96_21:
  3817     073F  2F22               	goto	i1l1551
  3818     0740                     u96_20:
  3819     0740                     i1l1559:
  3820     0740  0875               	movf	___wmul@product+1,w
  3821     0741  00F1               	movwf	?___wmul+1
  3822     0742  0874               	movf	___wmul@product,w
  3823     0743  00F0               	movwf	?___wmul
  3824     0744                     i1l355:
  3825     0744  0008               	return
  3826     0745                     __end_of___wmul:
  3827                           
  3828                           	psect	text11
  3829     05CB                     __ptext11:	
  3830 ;; *************** function ___awdiv *****************
  3831 ;; Defined at:
  3832 ;;		line 5 in file "C:\Program Files\Microchip\xc8\v2.40\pic\sources\c90\common\awdiv.c"
  3833 ;; Parameters:    Size  Location     Type
  3834 ;;  divisor         2    6[COMMON] int 
  3835 ;;  dividend        2    8[COMMON] int 
  3836 ;; Auto vars:     Size  Location     Type
  3837 ;;  quotient        2    2[BANK0 ] int 
  3838 ;;  sign            1    1[BANK0 ] unsigned char 
  3839 ;;  counter         1    0[BANK0 ] unsigned char 
  3840 ;; Return value:  Size  Location     Type
  3841 ;;                  2    6[COMMON] int 
  3842 ;; Registers used:
  3843 ;;		wreg, status,2, status,0
  3844 ;; Tracked objects:
  3845 ;;		On entry : 0/0
  3846 ;;		On exit  : 0/0
  3847 ;;		Unchanged: 0/0
  3848 ;; Data sizes:     COMMON   BANK0   BANK1   BANK3   BANK2
  3849 ;;      Params:         4       0       0       0       0
  3850 ;;      Locals:         0       4       0       0       0
  3851 ;;      Temps:          1       0       0       0       0
  3852 ;;      Totals:         5       4       0       0       0
  3853 ;;Total ram usage:        9 bytes
  3854 ;; Hardware stack levels used: 1
  3855 ;; This function calls:
  3856 ;;		Nothing
  3857 ;; This function is called by:
  3858 ;;		_map
  3859 ;; This function uses a non-reentrant model
  3860 ;;
  3861                           
  3862     05CB                     ___awdiv:	
  3863                           ;psect for function ___awdiv
  3864                           
  3865     05CB                     i1l1563:	
  3866                           ;incstack = 0
  3867                           ; Regs used in ___awdiv: [wreg+status,2+status,0]
  3868                           
  3869     05CB  1283               	bcf	3,5	;RP0=0, select bank0
  3870     05CC  1303               	bcf	3,6	;RP1=0, select bank0
  3871     05CD  01C4               	clrf	___awdiv@sign
  3872     05CE                     i1l1565:
  3873     05CE  1FF7               	btfss	___awdiv@divisor+1,7
  3874     05CF  2DD1               	goto	u97_21
  3875     05D0  2DD2               	goto	u97_20
  3876     05D1                     u97_21:
  3877     05D1  2DD9               	goto	i1l1571
  3878     05D2                     u97_20:
  3879     05D2                     i1l1567:
  3880     05D2  09F6               	comf	___awdiv@divisor,f
  3881     05D3  09F7               	comf	___awdiv@divisor+1,f
  3882     05D4  0AF6               	incf	___awdiv@divisor,f
  3883     05D5  1903               	skipnz
  3884     05D6  0AF7               	incf	___awdiv@divisor+1,f
  3885     05D7                     i1l1569:
  3886     05D7  01C4               	clrf	___awdiv@sign
  3887     05D8  0AC4               	incf	___awdiv@sign,f
  3888     05D9                     i1l1571:
  3889     05D9  1FF9               	btfss	___awdiv@dividend+1,7
  3890     05DA  2DDC               	goto	u98_21
  3891     05DB  2DDD               	goto	u98_20
  3892     05DC                     u98_21:
  3893     05DC  2DE6               	goto	i1l1577
  3894     05DD                     u98_20:
  3895     05DD                     i1l1573:
  3896     05DD  09F8               	comf	___awdiv@dividend,f
  3897     05DE  09F9               	comf	___awdiv@dividend+1,f
  3898     05DF  0AF8               	incf	___awdiv@dividend,f
  3899     05E0  1903               	skipnz
  3900     05E1  0AF9               	incf	___awdiv@dividend+1,f
  3901     05E2                     i1l1575:
  3902     05E2  3001               	movlw	1
  3903     05E3  00FA               	movwf	??___awdiv
  3904     05E4  087A               	movf	??___awdiv,w
  3905     05E5  06C4               	xorwf	___awdiv@sign,f
  3906     05E6                     i1l1577:
  3907     05E6  01C5               	clrf	___awdiv@quotient
  3908     05E7  01C6               	clrf	___awdiv@quotient+1
  3909     05E8                     i1l1579:
  3910     05E8  0876               	movf	___awdiv@divisor,w
  3911     05E9  0477               	iorwf	___awdiv@divisor+1,w
  3912     05EA  1903               	btfsc	3,2
  3913     05EB  2DED               	goto	u99_21
  3914     05EC  2DEE               	goto	u99_20
  3915     05ED                     u99_21:
  3916     05ED  2E25               	goto	i1l1599
  3917     05EE                     u99_20:
  3918     05EE                     i1l1581:
  3919     05EE  01C3               	clrf	___awdiv@counter
  3920     05EF  0AC3               	incf	___awdiv@counter,f
  3921     05F0  2DFC               	goto	i1l1587
  3922     05F1                     i1l1583:
  3923     05F1  3001               	movlw	1
  3924     05F2                     u100_25:
  3925     05F2  1003               	clrc
  3926     05F3  0DF6               	rlf	___awdiv@divisor,f
  3927     05F4  0DF7               	rlf	___awdiv@divisor+1,f
  3928     05F5  3EFF               	addlw	-1
  3929     05F6  1D03               	skipz
  3930     05F7  2DF2               	goto	u100_25
  3931     05F8                     i1l1585:
  3932     05F8  3001               	movlw	1
  3933     05F9  00FA               	movwf	??___awdiv
  3934     05FA  087A               	movf	??___awdiv,w
  3935     05FB  07C3               	addwf	___awdiv@counter,f
  3936     05FC                     i1l1587:
  3937     05FC  1FF7               	btfss	___awdiv@divisor+1,7
  3938     05FD  2DFF               	goto	u101_21
  3939     05FE  2E00               	goto	u101_20
  3940     05FF                     u101_21:
  3941     05FF  2DF1               	goto	i1l1583
  3942     0600                     u101_20:
  3943     0600                     i1l1589:
  3944     0600  3001               	movlw	1
  3945     0601                     u102_25:
  3946     0601  1003               	clrc
  3947     0602  0DC5               	rlf	___awdiv@quotient,f
  3948     0603  0DC6               	rlf	___awdiv@quotient+1,f
  3949     0604  3EFF               	addlw	-1
  3950     0605  1D03               	skipz
  3951     0606  2E01               	goto	u102_25
  3952     0607  0877               	movf	___awdiv@divisor+1,w
  3953     0608  0279               	subwf	___awdiv@dividend+1,w
  3954     0609  1D03               	skipz
  3955     060A  2E0D               	goto	u103_25
  3956     060B  0876               	movf	___awdiv@divisor,w
  3957     060C  0278               	subwf	___awdiv@dividend,w
  3958     060D                     u103_25:
  3959     060D  1C03               	skipc
  3960     060E  2E10               	goto	u103_21
  3961     060F  2E11               	goto	u103_20
  3962     0610                     u103_21:
  3963     0610  2E18               	goto	i1l1595
  3964     0611                     u103_20:
  3965     0611                     i1l1591:
  3966     0611  0876               	movf	___awdiv@divisor,w
  3967     0612  02F8               	subwf	___awdiv@dividend,f
  3968     0613  0877               	movf	___awdiv@divisor+1,w
  3969     0614  1C03               	skipc
  3970     0615  03F9               	decf	___awdiv@dividend+1,f
  3971     0616  02F9               	subwf	___awdiv@dividend+1,f
  3972     0617                     i1l1593:
  3973     0617  1445               	bsf	___awdiv@quotient,0
  3974     0618                     i1l1595:
  3975     0618  3001               	movlw	1
  3976     0619                     u104_25:
  3977     0619  1003               	clrc
  3978     061A  0CF7               	rrf	___awdiv@divisor+1,f
  3979     061B  0CF6               	rrf	___awdiv@divisor,f
  3980     061C  3EFF               	addlw	-1
  3981     061D  1D03               	skipz
  3982     061E  2E19               	goto	u104_25
  3983     061F                     i1l1597:
  3984     061F  3001               	movlw	1
  3985     0620  02C3               	subwf	___awdiv@counter,f
  3986     0621  1D03               	btfss	3,2
  3987     0622  2E24               	goto	u105_21
  3988     0623  2E25               	goto	u105_20
  3989     0624                     u105_21:
  3990     0624  2E00               	goto	i1l1589
  3991     0625                     u105_20:
  3992     0625                     i1l1599:
  3993     0625  0844               	movf	___awdiv@sign,w
  3994     0626  1903               	btfsc	3,2
  3995     0627  2E29               	goto	u106_21
  3996     0628  2E2A               	goto	u106_20
  3997     0629                     u106_21:
  3998     0629  2E2F               	goto	i1l1603
  3999     062A                     u106_20:
  4000     062A                     i1l1601:
  4001     062A  09C5               	comf	___awdiv@quotient,f
  4002     062B  09C6               	comf	___awdiv@quotient+1,f
  4003     062C  0AC5               	incf	___awdiv@quotient,f
  4004     062D  1903               	skipnz
  4005     062E  0AC6               	incf	___awdiv@quotient+1,f
  4006     062F                     i1l1603:
  4007     062F  0846               	movf	___awdiv@quotient+1,w
  4008     0630  00F7               	movwf	?___awdiv+1
  4009     0631  0845               	movf	___awdiv@quotient,w
  4010     0632  00F6               	movwf	?___awdiv
  4011     0633                     i1l506:
  4012     0633  0008               	return
  4013     0634                     __end_of___awdiv:
  4014                           
  4015                           	psect	text12
  4016     07B9                     __ptext12:	
  4017 ;; *************** function _delay *****************
  4018 ;; Defined at:
  4019 ;;		line 543 in file "newmain.c"
  4020 ;; Parameters:    Size  Location     Type
  4021 ;;  micro           2    0[COMMON] unsigned int 
  4022 ;; Auto vars:     Size  Location     Type
  4023 ;;		None
  4024 ;; Return value:  Size  Location     Type
  4025 ;;                  1    wreg      void 
  4026 ;; Registers used:
  4027 ;;		wreg, status,2, status,0
  4028 ;; Tracked objects:
  4029 ;;		On entry : 0/0
  4030 ;;		On exit  : 0/0
  4031 ;;		Unchanged: 0/0
  4032 ;; Data sizes:     COMMON   BANK0   BANK1   BANK3   BANK2
  4033 ;;      Params:         2       0       0       0       0
  4034 ;;      Locals:         0       0       0       0       0
  4035 ;;      Temps:          0       0       0       0       0
  4036 ;;      Totals:         2       0       0       0       0
  4037 ;;Total ram usage:        2 bytes
  4038 ;; Hardware stack levels used: 1
  4039 ;; This function calls:
  4040 ;;		Nothing
  4041 ;; This function is called by:
  4042 ;;		_isr
  4043 ;; This function uses a non-reentrant model
  4044 ;;
  4045                           
  4046     07B9                     _delay:	
  4047                           ;psect for function _delay
  4048                           
  4049     07B9                     i1l1611:	
  4050                           ;incstack = 0
  4051                           ; Regs used in _delay: [wreg+status,2+status,0]
  4052                           
  4053                           
  4054                           ;newmain.c: 544:     while (micro > 0){
  4055     07B9  2FC3               	goto	i1l1615
  4056     07BA                     i1l256:
  4057                           
  4058                           ;newmain.c: 545:         _delay((unsigned long)((50)*(500000/4000000.0)));
  4059     07BA  2FBB               	nop2	;2 cycle nop
  4060     07BB  2FBC               	nop2	;2 cycle nop
  4061     07BC  2FBD               	nop2	;2 cycle nop
  4062     07BD                     i1l1613:
  4063                           
  4064                           ;newmain.c: 546:         micro--;
  4065     07BD  3001               	movlw	1
  4066     07BE  02F0               	subwf	delay@micro,f
  4067     07BF  3000               	movlw	0
  4068     07C0  1C03               	skipc
  4069     07C1  03F1               	decf	delay@micro+1,f
  4070     07C2  02F1               	subwf	delay@micro+1,f
  4071     07C3                     i1l1615:
  4072                           
  4073                           ;newmain.c: 544:     while (micro > 0){
  4074     07C3  0870               	movf	delay@micro,w
  4075     07C4  0471               	iorwf	delay@micro+1,w
  4076     07C5  1D03               	btfss	3,2
  4077     07C6  2FC8               	goto	u107_21
  4078     07C7  2FC9               	goto	u107_20
  4079     07C8                     u107_21:
  4080     07C8  2FBA               	goto	i1l256
  4081     07C9                     u107_20:
  4082     07C9                     i1l258:
  4083     07C9  0008               	return
  4084     07CA                     __end_of_delay:
  4085     007E                     btemp	set	126	;btemp
  4086     007E                     wtemp0	set	126
  4087                           
  4088                           	psect	idloc
  4089                           
  4090                           ;Config register IDLOC0 @ 0x2000
  4091                           ;	unspecified, using default values
  4092     2000                     	org	8192
  4093     2000  3FFF               	dw	16383
  4094                           
  4095                           ;Config register IDLOC1 @ 0x2001
  4096                           ;	unspecified, using default values
  4097     2001                     	org	8193
  4098     2001  3FFF               	dw	16383
  4099                           
  4100                           ;Config register IDLOC2 @ 0x2002
  4101                           ;	unspecified, using default values
  4102     2002                     	org	8194
  4103     2002  3FFF               	dw	16383
  4104                           
  4105                           ;Config register IDLOC3 @ 0x2003
  4106                           ;	unspecified, using default values
  4107     2003                     	org	8195
  4108     2003  3FFF               	dw	16383
  4109                           
  4110                           	psect	config
  4111                           
  4112                           ;Config register CONFIG1 @ 0x2007
  4113                           ;	Oscillator Selection bits
  4114                           ;	FOSC = INTRC_NOCLKOUT, INTOSCIO oscillator: I/O function on RA6/OSC2/CLKOUT pin, I/O f
      +                          unction on RA7/OSC1/CLKIN
  4115                           ;	Watchdog Timer Enable bit
  4116                           ;	WDTE = OFF, WDT disabled and can be enabled by SWDTEN bit of the WDTCON register
  4117                           ;	Power-up Timer Enable bit
  4118                           ;	PWRTE = OFF, PWRT disabled
  4119                           ;	RE3/MCLR pin function select bit
  4120                           ;	MCLRE = OFF, RE3/MCLR pin function is digital input, MCLR internally tied to VDD
  4121                           ;	Code Protection bit
  4122                           ;	CP = OFF, Program memory code protection is disabled
  4123                           ;	Data Code Protection bit
  4124                           ;	CPD = OFF, Data memory code protection is disabled
  4125                           ;	Brown Out Reset Selection bits
  4126                           ;	BOREN = OFF, BOR disabled
  4127                           ;	Internal External Switchover bit
  4128                           ;	IESO = OFF, Internal/External Switchover mode is disabled
  4129                           ;	Fail-Safe Clock Monitor Enabled bit
  4130                           ;	FCMEN = OFF, Fail-Safe Clock Monitor is disabled
  4131                           ;	Low Voltage Programming Enable bit
  4132                           ;	LVP = OFF, RB3 pin has digital I/O, HV on MCLR must be used for programming
  4133                           ;	In-Circuit Debugger Mode bit
  4134                           ;	DEBUG = 0x1, unprogramme  4135     2007                     	org	8199
  4136     2007  20D4               	dw	8404
  4137                           
  4138                           ;Config register CONFIG2 @ 0x2008
  4139                           ;	Brown-out Reset Selection bit
  4140                           ;	BOR4V = BOR40V, Brown-out Reset set to 4.0V
  4141                           ;	Flash Program Memory Self Write Enable bits
  4142                           ;	WRT = OFF, Write protection off
  4143     2008                     	org	8200
  4144     2008  3FFF               	dw	16383

Data Sizes:
    Strings     121
    Constant    0
    Data        35
    BSS         15
    Persistent  0
    Stack       0

Auto Spaces:
    Space          Size  Autos    Used
    COMMON           14     13      14
    BANK0            80     17      66
    BANK1            80      4       4
    BANK3            96      0       0
    BANK2            96      0       0

Pointer List with Targets:

    cadena@cursor	PTR unsigned char  size(1) Largest target is 121
		 -> STR_1(CODE[121]), 


Critical Paths under _main in COMMON

    None.

Critical Paths under _isr in COMMON

    _isr->_map
    _map->___awdiv
    ___awdiv->___wmul

Critical Paths under _main in BANK0

    None.

Critical Paths under _isr in BANK0

    _isr->_map
    _map->___awdiv

Critical Paths under _main in BANK1

    _main->_cadena

Critical Paths under _isr in BANK1

    None.

Critical Paths under _main in BANK3

    None.

Critical Paths under _isr in BANK3

    None.

Critical Paths under _main in BANK2

    None.

Critical Paths under _isr in BANK2

    None.

Call Graph Tables:

 ---------------------------------------------------------------------------------
 (Depth) Function   	        Calls       Base Space   Used Autos Params    Refs
 ---------------------------------------------------------------------------------
 (0) _main                                                 2     2      0     132
                                              2 BANK1      2     2      0
                             _cadena
                         _readEEPROM
                              _setup
                           _setupADC
                           _setupPWM
                          _setupUART
                        _writeEEPROM
 ---------------------------------------------------------------------------------
 (1) _writeEEPROM                                          1     1      0      31
                                              0 BANK1      1     1      0
 ---------------------------------------------------------------------------------
 (1) _setupUART                                            0     0      0       0
 ---------------------------------------------------------------------------------
 (1) _setupPWM                                             0     0      0       0
 ---------------------------------------------------------------------------------
 (1) _setupADC                                             1     1      0       0
                                              0 BANK1      1     1      0
 ---------------------------------------------------------------------------------
 (1) _setup                                                0     0      0       0
 ---------------------------------------------------------------------------------
 (1) _readEEPROM                                           0     0      0       0
 ---------------------------------------------------------------------------------
 (1) _cadena                                               2     2      0     101
                                              0 BANK1      2     2      0
 ---------------------------------------------------------------------------------
 Estimated maximum stack depth 1
 ---------------------------------------------------------------------------------
 (Depth) Function   	        Calls       Base Space   Used Autos Params    Refs
 ---------------------------------------------------------------------------------
 (2) _isr                                                  5     5      0    2241
                                             12 BANK0      5     5      0
                              _delay
                                _map
 ---------------------------------------------------------------------------------
 (3) _map                                                 10     2      8    2066
                                             11 COMMON     2     2      0
                                              4 BANK0      8     0      8
                            ___awdiv
                             ___wmul
 ---------------------------------------------------------------------------------
 (4) ___wmul                                               6     2      4     244
                                              0 COMMON     6     2      4
 ---------------------------------------------------------------------------------
 (4) ___awdiv                                              9     5      4     452
                                              6 COMMON     5     1      4
                                              0 BANK0      4     4      0
                             ___wmul (ARG)
 ---------------------------------------------------------------------------------
 (3) _delay                                                2     0      2     175
                                              0 COMMON     2     0      2
 ---------------------------------------------------------------------------------
 Estimated maximum stack depth 4
 ---------------------------------------------------------------------------------

 Call Graph Graphs:

 _main (ROOT)
   _cadena
   _readEEPROM
   _setup
   _setupADC
   _setupPWM
   _setupUART
   _writeEEPROM

 _isr (ROOT)
   _delay
   _map
     ___awdiv
       ___wmul (ARG)
     ___wmul

 Address spaces:
Name               Size   Autos  Total    Cost      Usage
BANK3               60      0       0       9        0.0%
BITBANK3            60      0       0       8        0.0%
SFR3                 0      0       0       4        0.0%
BITSFR3              0      0       0       4        0.0%
BANK2               60      0       0      11        0.0%
BITBANK2            60      0       0      10        0.0%
SFR2                 0      0       0       5        0.0%
BITSFR2              0      0       0       5        0.0%
BANK1               50      4       4       7        5.0%
BITBANK1            50      0       0       6        0.0%
SFR1                 0      0       0       2        0.0%
BITSFR1              0      0       0       2        0.0%
BANK0               50     11      42       5       82.5%
BITBANK0            50      0       0       4        0.0%
SFR0                 0      0       0       1        0.0%
BITSFR0              0      0       0       1        0.0%
COMMON               E      D       E       1      100.0%
BITCOMMON            E      0       0       0        0.0%
CODE                 0      0       0       0        0.0%
DATA                 0      0      54      12        0.0%
ABS                  0      0      54       3        0.0%
NULL                 0      0       0       0        0.0%
STACK                0      0       0       2        0.0%
EEDATA             100      0       0       0        0.0%


Microchip Technology PIC Macro Assembler V2.40 build 20220703182018 
Symbol Table                                                                                   Wed May 31 12:18:45 2023

                      _x 0061                        _y 0060                        pc 0002  
            map@inputmax 0049              map@inputmin 0047                       _RD 0C60  
                     _WR 0C61             ___awdiv@sign 0044                       _x1 005F  
                     _y1 005E                       fsr 0004      ___wmul@multiplicand 0072  
                    l222 0676                      l230 071A                      l231 071F  
                    l240 07B8                      l225 077E                      l234 0793  
                    l251 06F8                      l243 06D7                      l228 0716  
                    l252 06F9                      l237 07A7                      l246 06E8  
                    l263 06B0                      l239 07B1                      l249 06F4  
                    l186 0064                      l267 06D3                      l187 0069  
                    l199 019A                      _PR2 0092                      _map 0677  
                    _isr 033B                      _pot 0056                      fsr0 0004  
                    indf 0000                     l2301 066A                     l2311 066F  
                   l2303 066B                     l2313 0670                     l2305 066C  
                   l2241 0637                     l2321 0768                     l2401 0048  
                   l2315 0671                     l2307 066D                     l2251 063E  
                   l2243 0638                     l2323 0778                     l2331 0705  
                   l2411 005F                     l2403 004C                     l2317 0672  
                   l2309 066E                     l2261 0643                     l2253 063F  
                   l2245 0639                     l2341 070B                     l2333 0707  
                   l2325 06FA                     l2501 015C                     l2421 006D  
                   l2413 0060                     l2405 0052                     l2319 0673  
                   l2271 064E                     l2263 064A                     l2255 0640  
                   l2247 063A                     l2239 0634                     l2343 070E  
                   l2335 0708                     l2327 06FD                     l2351 077F  
                   l2503 0168                     l2431 0087                     l2423 0071  
                   l2511 0184                     l2415 0061                     l2407 005A  
                   l2281 0659                     l2273 064F                     l2265 064B  
                   l2257 0641                     l2249 063B                     l2345 0712  
                   l2337 0709                     l2329 0703                     l2361 078C  
                   l2353 0785                     l2601 02B6                     l2521 0196  
                   l2505 016C                     l2441 00A3                     l2433 008B  
                   l2425 0075                     l2417 0062                     l2409 005B  
                   l2513 018A                     l2371 06C1                     l2291 0665  
                   l2283 065C                     l2275 0650                     l2267 064C  
                   l2259 0642                     l2347 0713                     l2339 070A  
                   l2363 078F                     l2355 0786                     l2611 02D9  
                   l2603 02BD                     l2531 01A6                     l2523 0197  
                   l2515 0190                     l2507 0178                     l2451 00BB  
                   l2443 00AB                     l2435 0093                     l2427 007C  
                   l2419 0068                     l2373 06C7                     l2293 0666  
                   l2285 0662                     l2277 0653                     l2269 064D  
                   l2349 0714                     l2365 0792                     l2357 0788  
                   l2381 06E6                     l2621 0312                     l2613 02F0  
                   l2605 02C1                     l2541 01C4                     l2533 01AD  
                   l2525 0198                     l2517 0194                     l2509 0180  
                   l2461 00DE                     l2453 00C2                     l2437 0097  
                   l2429 007F                     l2445 00AF                     l2367 06AF  
                   l2391 07A7                     l2295 0667                     l2287 0663  
                   l2279 0656                     l2359 0789                     l2383 06E7  
                   l2375 06D7                     l2631 031A                     l2623 0316  
                   l2615 0303                     l2607 02C9                     l2543 01C8  
                   l2535 01B0                     l2551 01F4                     l2527 019E  
                   l2519 0195                     l2471 00FE                     l2463 00EA  
                   l2455 00C6                     l2447 00B3                     l2439 009F  
                   l2369 06B5                     l2393 07AD                     l2297 0668  
                   l2289 0664                     l2385 06EC                     l2377 06DD  
                   l2641 032D                     l2633 031B                     l2625 0317  
                   l2609 02D5                     l2561 020B                     l2553 01F8  
                   l2545 01DB                     l2537 01B8                     l2529 01A2  
                   l2617 0305                     l2481 0121                     l2473 0102  
                   l2465 00F2                     l2457 00CE                     l2449 00B7  
                   l2395 07B3                     l2299 0669                     l2387 06F2  
                   l2379 06E3                     l2643 032E                     l2627 0318  
                   l2635 0321                     l2571 024D                     l2563 0213  
                   l2555 01FC                     l2547 01DF                     l2539 01BC  
                   l2619 030B                     l2491 0141                     l2483 0125  
                   l2475 0109                     l2459 00DA                     l2467 00F6  
                   l2389 06F3                     l2645 032F                     l2637 0328  
                   l2629 0319                     l2581 0262                     l2565 021F  
                   l2557 0200                     l2573 024F                     l2549 01F2  
                   l2493 0145                     l2485 0131                     l2477 010D  
                   l2469 00FA                     l2647 0330                     l2639 032C  
                   l2591 0295                     l2583 0266                     l2575 0253  
                   l2567 0223                     l2559 0207                     l2495 0149  
                   l2487 0139                     l2479 0115                     l2399 0034  
                   l2649 0331                     l2593 02A8                     l2585 026E  
                   l2577 0257                     l2569 023A                     l2497 0150  
                   l2489 013D                     l2587 027A                     l2579 025B  
                   l2595 02AA                     l2499 0154                     l2597 02AE  
                   l2589 027E                     ?_map 0047                     l2599 02B2  
                   ?_isr 0070                     STR_1 0552                     u2000 00C2  
                   u2001 00C1                     u2010 00FA                     u2011 00F9  
                   u2100 01A6                     u2020 0102                     u2101 01A5  
                   u2021 0101                     u2110 01AD                     u2030 0109  
                   u2111 01AC                     u2031 0108                     u2200 02BD  
                   u2120 01F8                     u2040 0141                     u2201 02BC  
                   u2121 01F7                     u2041 0140                     u2210 030B  
                   u2130 0200                     u2050 0149                     u2211 030A  
                   u2131 01FF                     u2051 0148                     u2220 0312  
                   u2140 0207                     u2060 0150                     u2221 0311  
                   u2141 0206                     u2061 014F                     u2230 0321  
                   u2150 0253                     u2070 018A                     u2231 0320  
                   u2151 0252                     u2071 0189                     u2240 0328  
                   u2160 025B                     u2080 0190                     u2241 0327  
                   u2161 025A                     u2081 018F                     u2250 0337  
                   u2170 0262                     u2090 019E                     u2251 0336  
                   u2171 0261                     u2091 019D                     u2180 02AE  
                   u2181 02AD                     u2190 02B6                     u2191 02B5  
                   u2267 077C                     u1900 06F8                     u1901 06F7  
                   u1910 07AD                     u1911 07AC                     u1920 07B1  
                   u1921 07B0                     u1850 071A                     u1930 005A  
                   u1851 0719                     u1931 0059                     u1860 06B5  
                   u1940 0068                     u1861 06B4                     u1941 0067  
                   u1870 06D3                     u1950 006D                     u1871 06D2  
                   u1951 006C                     u1880 06DD                     u1960 0075  
                   u1881 06DC                     u1961 0074                     u1890 06EC  
                   u1970 007C                     u1891 06EB                     u1971 007B  
                   u1980 00B3                     u1981 00B2                     u1990 00BB  
                   u1991 00BA                     _TMR0 0001                     _dato 007D  
                   _main 0034                     _pot1 0054                     _loop 0058  
                   btemp 007E                     start 0010              _writeEEPROM 06D4  
                  ??_map 007B                    ??_isr 004F                    ?_main 0070  
        __end_of___awdiv 0634                    _EEADR 010D                    _EEDAT 010C  
        ___awdiv@divisor 0076                    i1l135 06AB                    i1l148 0407  
                  i1l256 07BA                    i1l353 072C                    i1l258 07C9  
                  i1l506 0633                    i1l178 0543                    i1l355 0744  
        ___awdiv@counter 0043                    _RCREG 001A                    _SPBRG 0099  
                  _PORTA 0005                    _PORTB 0006                    _PORTD 0008  
                  _TRISD 0088                    u93_20 0726                    u93_21 0725  
                  u94_25 072D                    u95_25 0734                    u96_20 0740  
                  u96_21 073F                    u97_20 05D2                    u97_21 05D1  
                  _TXREG 0019                    u98_20 05DD                    u98_21 05DC  
                  u99_20 05EE                    u99_21 05ED                    _delay 07B9  
                  _servo 0020                    _setup 0634                    pclath 000A  
                  status 0003                    wtemp0 007E          __initialization 0013  
           __end_of_main 033B                   ??_main 00A2                   ?_delay 0070  
                 _ADRESH 001E                   _EEADRH 010F                   _EEDATA 010C  
                 _CCPR1L 0015                   _CCPR2L 001B                   _EECON2 018D  
       ___awdiv@dividend 0078                   ?_setup 0070                   _ANSELH 0189  
                 u100_25 05F2                   u101_20 0600                   u101_21 05FF  
                 u102_25 0601                   u103_20 0611                   u103_21 0610  
                 u103_25 060D                   u120_20 0363                   i1l1601 062A  
                 u120_21 0362                   i1l1611 07B9                   i1l1603 062F  
                 i1l1613 07BD                   u104_25 0619                   i1l1615 07C3  
                 i1l1551 0722                   i1l1607 0678                   u105_20 0625  
                 u121_20 0369                   u105_21 0624                   i1l1553 0726  
                 i1l1801 0372                   u121_21 0368                   i1l1571 05D9  
                 i1l1563 05CB                   i1l1555 0733                   i1l1811 03B7  
                 i1l1803 038B                   i1l1581 05EE                   i1l1573 05DD  
                 i1l1565 05CE                   i1l1557 073A                   i1l1549 0720  
                 i1l1901 0492                   i1l1821 0404                   i1l1813 03C0  
                 i1l1805 0390                   i1l1591 0611                   i1l1583 05F1  
                 i1l1575 05E2                   i1l1567 05D2                   i1l1559 0740  
                 i1l1911 04A5                   i1l1903 0493                   i1l1831 040F  
                 i1l1815 03DB                   i1l1807 0399                   i1l1823 0407  
                 u106_20 062A                   u130_20 044B                   u122_20 0372  
                 u106_21 0629                   i1l1593 0617                   i1l1585 05F8  
                 i1l1577 05E6                   i1l1569 05D7                   i1l1921 04B8  
                 i1l1913 04A7                   i1l1905 0499                   u130_21 044A  
                 i1l1841 0426                   i1l1833 0410                   i1l1817 03E0  
                 i1l1809 03B2                   u122_21 0371                   i1l1825 0408  
                 i1l1595 0618                   i1l1587 05FC                   i1l1579 05E8  
                 i1l1923 04BD                   i1l1931 04C7                   i1l1915 04AD  
                 i1l1907 049E                   i1l1851 0438                   i1l1835 0419  
                 i1l1827 040C                   i1l1843 0429                   i1l1819 03E9  
                 i1l1597 061F                   i1l1589 0600                   i1l1941 04DB  
                 i1l1933 04CD                   i1l1925 04BE                   i1l1917 04B1  
                 i1l1909 049F                   i1l1861 044B                   i1l1853 043E  
                 i1l1845 042D                   i1l1837 041C                   i1l1829 040D  
                 i1l1781 0344                   i1l1599 0625                   i1l1951 04F6  
                 i1l1943 04E6                   i1l1935 04D2                   i1l1927 04C4  
                 i1l1919 04B2                   i1l1871 045C                   i1l1863 044F  
                 i1l1855 0442                   i1l1847 0433                   i1l1839 041D  
                 i1l1791 035A                   i1l1783 0348                   u107_20 07C9  
                 u131_20 0458                   u123_20 0399                   u107_21 07C8  
                 i1l1961 050B                   i1l1953 04F7                   i1l1945 04EA  
                 i1l1937 04D3                   i1l1929 04C6                   i1l1881 046B  
                 i1l1873 045E                   u131_21 0457                   i1l1865 0451  
                 i1l1857 0444                   i1l1849 0437                   u123_21 0398  
                 i1l1793 035C                   i1l1785 034C                   i1l1777 033B  
                 i1l1971 0524                   i1l1963 0510                   i1l1955 0502  
                 i1l1939 04D9                   i1l1947 04EB                   i1l1883 0471  
                 i1l1891 047E                   i1l1875 045F                   i1l1867 0452  
                 i1l1859 0445                   i1l1795 0363                   i1l1787 0352  
                 i1l1779 033F                   i1l1981 0535                   i1l1973 0528  
                 i1l1965 0511                   i1l1957 0504                   i1l1949 04F1  
                 i1l1893 0484                   i1l1885 0473                   i1l1877 0465  
                 i1l1869 0458                   i1l1789 0358                   i1l1797 0365  
                 i1l1983 0540                   i1l1967 0517                   i1l1975 0529  
                 i1l1959 0505                   i1l1895 0489                   i1l1887 0479  
                 i1l1879 046A                   i1l1799 0369                   u140_20 04B8  
                 u132_20 0465                   u124_20 03C0                   u116_20 033F  
                 i1l1985 0542                   i1l1977 052F                   i1l1969 0519  
                 u140_21 04B7                   i1l1897 048A                   i1l1889 047D  
                 u132_21 0464                   u124_21 03BF                   u116_21 033E  
                 i1l1979 0534                   i1l1899 0490                   u141_20 04BD  
                 u133_20 046A                   u125_20 03E9                   u117_20 0344  
                 u141_21 04BC                   u133_21 0469                   u125_21 03E8  
                 u117_21 0343                   u150_20 052F                   u142_20 04CD  
                 u134_20 0471                   u126_20 040C                   u118_20 034C  
                 u150_21 052E                   u142_21 04CC                   u134_21 0470  
                 u126_21 040B                   u118_21 034B                   u151_20 0534  
                 u143_20 04D2                   u135_20 0484                   u127_20 042D  
                 u119_20 0352                   u151_21 0533                   u143_21 04D1  
                 u135_21 0483                   u127_21 042C                   u119_21 0351  
                 u144_20 04D9                   u136_20 0489                   u128_20 0433  
                 u144_21 04D8                   u136_21 0488                   u128_21 0432  
                 u145_20 04F1                   u137_20 0499                   u129_20 043E  
                 u145_21 04F0                   u137_21 0498                   u129_21 043D  
                 u146_20 04F6                   u138_20 049E                   u146_21 04F5  
                 u138_21 049D                   u147_20 050B                   u139_20 04A5  
                 u147_21 050A                   u139_21 04A4                   u148_20 0510  
                 u148_21 050F                   u149_20 0517                   u149_21 0516  
                 _SPBRGH 009A                   _cadena 06AC                   ___wmul 0720  
              ??___awdiv 007A         ___awdiv@quotient 0045                   _servo2 0032  
       __end_of_setupADC 077F         __end_of_setupPWM 0720                   saved_w 007E  
__end_of__initialization 0030          writeEEPROM@data 00A0           __pcstackCOMMON 0070  
           __pidataBANK0 0745            __end_of_delay 07CA            __end_of_setup 0677  
         _OPTION_REGbits 0081                  ??_delay 0072                  ??_setup 00A0  
             __pbssBANK0 0054               __pmaintext 0034             ?_writeEEPROM 0070  
                ?_cadena 0070                  ?___wmul 0070               __pintentry 0004  
                _CCP1CON 0017                  _CCP2CON 001D               __stringtab 054C  
           cadena@cursor 00A1               _readEEPROM 07A7                ?_setupADC 0070  
              ?_setupPWM 0070                  ___awdiv 05CB                  _bandera 005A  
              _ANSELbits 0188                  __ptext1 06D4                  __ptext2 077F  
                __ptext3 06FA                  __ptext4 0768                  __ptext5 0634  
                __ptext6 07A7                  __ptext7 06AC                  __ptext8 033B  
                __ptext9 0677                _T2CONbits 0012               delay@micro 0070  
   end_of_initialization 0030        __end_of_setupUART 0794               ??_setupADC 00A0  
              _RCSTAbits 0018               ??_setupPWM 00A0                _PORTBbits 0006  
              _PORTCbits 0007                _PORTDbits 0008                _TRISBbits 0086  
              _TRISCbits 0087              _CCP1CONbits 0017              ?_readEEPROM 0070  
            _CCP2CONbits 001D                _TXSTAbits 0098           __end_of_cadena 06D4  
         __end_of___wmul 0745              _BAUDCTLbits 0187      start_initialization 0013  
            __end_of_map 06AC              __end_of_isr 054C                 ??_cadena 00A0  
               ??___wmul 0074               init_fetch0 0794              __pdataBANK0 0020  
            __pbssCOMMON 007D                ___latbits 0002            __pcstackBANK0 0043  
          __pcstackBANK1 00A0                 ?___awdiv 0076                __pstrings 054C  
      interrupt_function 0004           ___wmul@product 0074                 _IOCBbits 0096  
               _PIE1bits 008C                 _PIR1bits 000C                _setupUART 077F  
             _ADCON0bits 001F              __stringbase 0551               _ADCON1bits 009F  
      ___wmul@multiplier 0070                map@outmax 004D                map@outmin 004B  
               _WPUBbits 0095             ??_readEEPROM 00A0               _EECON1bits 018C  
             ?_setupUART 0070       __end_of__stringtab 0552       __end_of_readEEPROM 07B9  
               __ptext10 0720                 __ptext11 05CB                 __ptext12 07B9  
               _selector 005C            ??_writeEEPROM 00A0                 _setupADC 0768  
               _setupPWM 06FA                 map@value 007C               _INTCONbits 000B  
               init_ram0 0798                 intlevel1 0000                stringcode 054C  
             _OSCCONbits 008F              ??_setupUART 00A0      __end_of_writeEEPROM 06FA  
               stringdir 054C                 stringtab 054C  
